(lp0
(dp1
S'text'
p2
V"My persona will never be that of a wallflower - I\u2019d rather build walls than cling to them" --Donald J. Trump
p3
sS'timestamp'
p4
V7:07 AM - 12 May 2009
p5
sa(dp6
g2
VDonald Trump will be appearing on The View tomorrow morning to discuss Celebrity Apprentice and his new book Think Like A Champion!
p7
sg4
V6:00 PM - 4 May 2009
p8
sa(dp9
g2
V"You have to know when to call it quits and when to keep moving forward." --Donald J. Trump http://www.trumpthinklikeachampion.com
p10
sg4
V11:03 AM - 28 May 2009
p11
sa(dp12
g2
VRead a great interview with Donald Trump that appeared in The New York Times Magazine: http://tinyurl.com/qsx4o6
p13
sg4
V3:29 PM - 20 May 2009
p14
sa(dp15
g2
VListen to an interview with Donald Trump discussing his new book, Think Like A Champion: http://tinyurl.com/qs24vl
p16
sg4
V10:38 AM - 13 May 2009
p17
sa(dp18
g2
VRead an excerpt from Think Like A Champion by Donald J. Trump: http://bit.ly/11FHpR
p19
sg4
V7:18 AM - 27 May 2009
p20
sa(dp21
g2
V"Your higher self is in direct opposition to your comfort zone." --Donald J. Trump http://tinyurl.com/pqpfvm
p22
sg4
V7:42 AM - 26 May 2009
p23
sa(dp24
g2
VDid you know Donald Trump is on Facebook? http://www.facebook.com/DonaldTrump - Become a fan today!
p25
sg4
V9:11 AM - 23 May 2009
p26
sa(dp27
g2
VDon't forget to enter the "Think Like A Champion" signed book and keychain contest: http://www.trumpthinklikeachampion.com/contest
p28
sg4
V9:28 AM - 22 May 2009
p29
sa(dp30
g2
V"Keep it fast, short and direct - whatever it is." --Donald J. Trump http://tinyurl.com/pqpfvm
p31
sg4
V7:59 PM - 21 May 2009
p32
sa(dp33
g2
V"Always know you could be on the precipice of something great." --Donald J. Trump http://tinyurl.com/pqpfvm
p34
sg4
V6:25 AM - 20 May 2009
p35
sa(dp36
g2
V"...these days...we could all use a little of the power of Trumpative thinking." \u2013BarnesandNoble.com http://tinyurl.com/pqpfvm
p37
sg4
V10:43 AM - 19 May 2009
p38
sa(dp39
g2
V"We win in our lives by having a champion's view of each moment." --Donald J. Trump http://tinyurl.com/pqpfvm
p40
sg4
V7:26 AM - 18 May 2009
p41
sa(dp42
g2
V"Don\u2019t be afraid of being unique - it's like being afraid of your best self." --Donald J. Trump http://tinyurl.com/pqpfvm
p43
sg4
V8:00 AM - 17 May 2009
p44
sa(dp45
g2
V"When the achiever achieves, it's not a plateau, it\u2019s a beginning." --Donald J. Trump http://tinyurl.com/pqpfvm
p46
sg4
V3:22 PM - 16 May 2009
p47
sa(dp48
g2
V"Strive for wholeness and keep your sense of wonder intact." --Donald J. Trump http://tinyurl.com/pqpfvm
p49
sg4
V9:30 AM - 14 May 2009
p50
sa(dp51
g2
VMiss USA Tara Conner will not be fired - "I've always been a believer in second chances." says Donald Trump
p52
sg4
V12:21 PM - 12 May 2009
p53
sa(dp54
g2
VNew Blog Post: Celebrity Apprentice Finale and Lessons Learned Along the Way: http://tinyurl.com/qlux5e
p55
sg4
V1:40 PM - 8 May 2009
p56
sa(dp57
g2
V"You have to know when to call it quits and when to keep moving forward." --Donald J. Trump http://www.trumpthinklikeachampion.com
p58
sg4
V11:03 AM - 28 May 2009
p59
sa(dp60
g2
VRead an excerpt from Think Like A Champion by Donald J. Trump: http://bit.ly/11FHpR
p61
sg4
V7:18 AM - 27 May 2009
p62
sa(dp63
g2
V"Your higher self is in direct opposition to your comfort zone." --Donald J. Trump http://tinyurl.com/pqpfvm
p64
sg4
V7:42 AM - 26 May 2009
p65
sa(dp66
g2
VDid you know Donald Trump is on Facebook? http://www.facebook.com/DonaldTrump - Become a fan today!
p67
sg4
V9:11 AM - 23 May 2009
p68
sa(dp69
g2
VDon't forget to enter the "Think Like A Champion" signed book and keychain contest: http://www.trumpthinklikeachampion.com/contest
p70
sg4
V9:28 AM - 22 May 2009
p71
sa(dp72
g2
V"Keep it fast, short and direct - whatever it is." --Donald J. Trump http://tinyurl.com/pqpfvm
p73
sg4
V7:59 PM - 21 May 2009
p74
sa(dp75
g2
VRead a great interview with Donald Trump that appeared in The New York Times Magazine: http://tinyurl.com/qsx4o6
p76
sg4
V3:29 PM - 20 May 2009
p77
sa(dp78
g2
V"Always know you could be on the precipice of something great." --Donald J. Trump http://tinyurl.com/pqpfvm
p79
sg4
V6:25 AM - 20 May 2009
p80
sa(dp81
g2
V"...these days...we could all use a little of the power of Trumpative thinking." \u2013BarnesandNoble.com http://tinyurl.com/pqpfvm
p82
sg4
V10:43 AM - 19 May 2009
p83
sa(dp84
g2
V"We win in our lives by having a champion's view of each moment." --Donald J. Trump http://tinyurl.com/pqpfvm
p85
sg4
V7:26 AM - 18 May 2009
p86
sa(dp87
g2
V"Don\u2019t be afraid of being unique - it's like being afraid of your best self." --Donald J. Trump http://tinyurl.com/pqpfvm
p88
sg4
V8:00 AM - 17 May 2009
p89
sa(dp90
g2
V"When the achiever achieves, it's not a plateau, it\u2019s a beginning." --Donald J. Trump http://tinyurl.com/pqpfvm
p91
sg4
V3:22 PM - 16 May 2009
p92
sa(dp93
g2
VEnter the "Think Like A Champion" signed book and keychain contest:\u000ahttp://www.trumpthinklikeachampion.com/contest/
p94
sg4
V7:13 AM - 15 May 2009
p95
sa(dp96
g2
V"Strive for wholeness and keep your sense of wonder intact." --Donald J. Trump http://tinyurl.com/pqpfvm
p97
sg4
V9:30 AM - 14 May 2009
p98
sa(dp99
g2
VListen to an interview with Donald Trump discussing his new book, Think Like A Champion: http://tinyurl.com/qs24vl
p100
sg4
V10:38 AM - 13 May 2009
p101
sa(dp102
g2
VMiss USA Tara Conner will not be fired - "I've always been a believer in second chances." says Donald Trump
p103
sg4
V12:21 PM - 12 May 2009
p104
sa(dp105
g2
V"My persona will never be that of a wallflower - I\u2019d rather build walls than cling to them" --Donald J. Trump
p106
sg4
V7:07 AM - 12 May 2009
p107
sa(dp108
g2
VNew Blog Post: Celebrity Apprentice Finale and Lessons Learned Along the Way: http://tinyurl.com/qlux5e
p109
sg4
V1:40 PM - 8 May 2009
p110
sa(dp111
g2
VRE: Michael Jackson: "He was a great friend and a spectacular entertainer. It\u2019s a devastating loss!" -Donald J. Trump
p112
sg4
V9:51 AM - 26 Jun 2009
p113
sa(dp114
g2
V\u201cExpand your life every day.\u201d \u2013Donald J. Trump http://tinyurl.com/pqpfvm
p115
sg4
V6:40 AM - 23 Jun 2009
p116
sa(dp117
g2
VToday is Donald Trump's Birthday! Send him your B'day wishes here: http://www.facebook.com/DonaldTrump
p118
sg4
V7:25 AM - 14 Jun 2009
p119
sa(dp120
g2
VThanks to all for your thoughtful birthday wishes \u2013 Donald Trump
p121
sg4
V4:13 PM - 15 Jun 2009
p122
sa(dp123
g2
V- Wishing a Happy Father's Day to all the Dad's out there - YOU are a champion today and everyday! http://tinyurl.com/kn95ju
p124
sg4
V7:47 AM - 21 Jun 2009
p125
sa(dp126
g2
VWatch a powerful and frank interview with Donald Trump about the economy on Greta Van Susteren's On The Record: http://tinyurl.com/mmjked
p127
sg4
V6:32 AM - 30 Jun 2009
p128
sa(dp129
g2
VDonald Trump\u2019s commercial-free WWE Raw does big rating: http://tinyurl.com/nxvquo
p130
sg4
V3:09 PM - 24 Jun 2009
p131
sa(dp132
g2
VRE: FB Vanity URLs: SF Chronicle - "David Beckham was one of the first, along with Britney Spears & Donald Trump." http://tinyurl.com/ln4lol
p133
sg4
V6:26 AM - 18 Jun 2009
p134
sa(dp135
g2
VLast week to enter the "Think Like A Champion" signed book and keychain contest: http://www.trumpthinklikeachampion.com/contest/
p136
sg4
V1:15 PM - 8 Jun 2009
p137
sa(dp138
g2
VWatch a powerful and frank interview with Donald Trump about the economy on Greta Van Susteren's On The Record: http://tinyurl.com/mmjked
p139
sg4
V6:32 AM - 30 Jun 2009
p140
sa(dp141
g2
VRE: Michael Jackson: "He was a great friend and a spectacular entertainer. It\u2019s a devastating loss!" -Donald J. Trump
p142
sg4
V9:51 AM - 26 Jun 2009
p143
sa(dp144
g2
VDonald Trump\u2019s commercial-free WWE Raw does big rating: http://tinyurl.com/nxvquo
p145
sg4
V3:09 PM - 24 Jun 2009
p146
sa(dp147
g2
V\u201cExpand your life every day.\u201d \u2013Donald J. Trump http://tinyurl.com/pqpfvm
p148
sg4
V6:40 AM - 23 Jun 2009
p149
sa(dp150
g2
V- Wishing a Happy Father's Day to all the Dad's out there - YOU are a champion today and everyday! http://tinyurl.com/kn95ju
p151
sg4
V7:47 AM - 21 Jun 2009
p152
sa(dp153
g2
VRE: FB Vanity URLs: SF Chronicle - "David Beckham was one of the first, along with Britney Spears & Donald Trump." http://tinyurl.com/ln4lol
p154
sg4
V6:26 AM - 18 Jun 2009
p155
sa(dp156
g2
VThanks to all for your thoughtful birthday wishes \u2013 Donald Trump
p157
sg4
V4:13 PM - 15 Jun 2009
p158
sa(dp159
g2
VToday is Donald Trump's Birthday! Send him your B'day wishes here: http://www.facebook.com/DonaldTrump
p160
sg4
V7:25 AM - 14 Jun 2009
p161
sa(dp162
g2
VLast week to enter the "Think Like A Champion" signed book and keychain contest: http://www.trumpthinklikeachampion.com/contest/
p163
sg4
V1:15 PM - 8 Jun 2009
p164
sa(dp165
g2
VHere's to a safe and happy Independence Day for one and all - Enjoy it! --Donald J. Trump
p166
sg4
V4:19 PM - 4 Jul 2009
p167
sa(dp168
g2
VCheck out a list of Donald Trump's books for summer reading at the Trump University Blog: http://tinyurl.com/knyswt
p169
sg4
V8:50 AM - 28 Jul 2009
p170
sa(dp171
g2
VCongrats to winners from around the world who entered the "Think Like A Champion" signed book/keychain contest! http://tinyurl.com/pqpfvm
p172
sg4
V8:32 AM - 22 Jul 2009
p173
sa(dp174
g2
VCheck out a list of Donald Trump's books for summer reading at the Trump University Blog: http://tinyurl.com/knyswt
p175
sg4
V8:50 AM - 28 Jul 2009
p176
sa(dp177
g2
VCongrats to winners from around the world who entered the "Think Like A Champion" signed book/keychain contest! http://tinyurl.com/pqpfvm
p178
sg4
V8:32 AM - 22 Jul 2009
p179
sa(dp180
g2
VDonald Trump backs 'Apprentice' Randal Pinkett for N.J. Lieutenant Governor: http://tinyurl.com/mvovzb
p181
sg4
V6:40 AM - 15 Jul 2009
p182
sa(dp183
g2
V"Think. That\u2019s the first step. Use all your power to utilize and develop that capability" --Donald J. Trump http://tinyurl.com/pqpfvm
p184
sg4
V7:50 AM - 11 Aug 2009
p185
sa(dp186
g2
VWatch the Miss Universe competition LIVE from the Bahamas - Sunday, 8/23 @ 9pm (ET) on NBC: http://tinyurl.com/mrzad9
p187
sg4
V7:32 AM - 21 Aug 2009
p188
sa(dp189
g2
V-- Watch Donald Trump's recent appearance on The Late Show with David Letterman: http://tinyurl.com/klts6b
p190
sg4
V6:43 AM - 20 Aug 2009
p191
sa(dp192
g2
V- Donald Trump bids to buy the Oreo Double Stuf Racing League. Check it out: http://www.nabiscoworld.com/oreo/dsrl/home.aspx
p193
sg4
V9:23 AM - 29 Aug 2009
p194
sa(dp195
g2
V- Donald Trump bids to buy the Oreo Double Stuf Racing League. Check it out: http://www.nabiscoworld.com/oreo/dsrl/home.aspx
p196
sg4
V9:23 AM - 29 Aug 2009
p197
sa(dp198
g2
VReminder: The Miss Universe competition will be LIVE from the Bahamas - Tonight @ 9pm (EST) on NBC: http://tinyurl.com/mrzad9
p199
sg4
V2:12 PM - 23 Aug 2009
p200
sa(dp201
g2
VWatch the Miss Universe competition LIVE from the Bahamas - Sunday, 8/23 @ 9pm (ET) on NBC: http://tinyurl.com/mrzad9
p202
sg4
V7:32 AM - 21 Aug 2009
p203
sa(dp204
g2
V-- Watch Donald Trump's recent appearance on The Late Show with David Letterman: http://tinyurl.com/klts6b
p205
sg4
V6:43 AM - 20 Aug 2009
p206
sa(dp207
g2
VIvanka is now on Twitter - You can follow her @IvankaTrump - Have a terrific weekend!
p208
sg4
V7:33 AM - 14 Aug 2009
p209
sa(dp210
g2
V- More hysterical DSRL videos featuring Donald Trump and "Double Trump" plus enter Golden Lick Race Sweepstakes: http://tinyurl.com/6asujj
p211
sg4
V6:55 AM - 1 Sep 2009
p212
sa(dp213
g2
V"A lot of people have imagination, but can't execute--you have to execute with the imagination." --Donald J. Trump http://tinyurl.com/pqpfvm
p214
sg4
V8:28 AM - 29 Sep 2009
p215
sa(dp216
g2
VWatch video of Ivanka Trump sharing business advice with 4 entrepreneurial women on GMA: http://tinyurl.com/yk6hlfo
p217
sg4
V7:13 AM - 14 Oct 2009
p218
sa(dp219
g2
V- Read what Donald Trump has to say about daughter Ivanka's upcoming new book, The Trump Card: http://tinyurl.com/ycsqmda
p220
sg4
V7:37 AM - 5 Oct 2009
p221
sa(dp222
g2
V--From Donald Trump: "Ivanka and Jared\u2019s wedding was spectacular, and they make a beautiful couple. I\u2019m a very proud father."
p223
sg4
V8:31 AM - 27 Oct 2009
p224
sa(dp225
g2
VHear Donald Trump discuss big gov spending, banks, & taxes on Your World w/Neil Cavuto: http://tinyurl.com/yhnzd7p
p226
sg4
V6:57 AM - 22 Oct 2009
p227
sa(dp228
g2
VWishing you and yours a very Happy and Bountiful Thanksgiving!
p229
sg4
V11:55 AM - 26 Nov 2009
p230
sa(dp231
g2
VWishing you and yours a very Happy and Bountiful Thanksgiving!
p232
sg4
V11:55 AM - 26 Nov 2009
p233
sa.