(lp0
(dp1
S'text'
p2
Vfrom Donald Trump: "I saw Lady Gaga last night and she was fantastic!"
p3
sS'timestamp'
p4
V8:58 AM - 21 Jan 2010
p5
sa(dp6
g2
VTrump Tycoon App for iPhone & iPod Touch - It's $2.99 but the advice is priceless! http://bit.ly/UGUF0
p7
sg4
V8:28 AM - 15 Jan 2010
p8
sa(dp9
g2
VGolf Channel & Donald Trump's World of Golf host a Celebrity Match 1/25 @ TNGC LA, CA - Mark Wahlberg vs. Kevin Dillon http://bit.ly/4MubN6
p10
sg4
V12:51 PM - 22 Jan 2010
p11
sa(dp12
g2
Vfrom Donald Trump: "I saw Lady Gaga last night and she was fantastic!"
p13
sg4
V8:58 AM - 21 Jan 2010
p14
sa(dp15
g2
VFrom Donald Trump: \u201cI\u2019m so proud of my wife Melania and the launch of her new jewelry line, to debut on QVC on April 30th at 9 p.m.\u201d
p16
sg4
V1:18 PM - 26 Feb 2010
p17
sa(dp18
g2
VSuperbowl Sunday is a great American tradition. The Colts and Saints are already champions, but may the best team win!
p19
sg4
V8:54 AM - 7 Feb 2010
p20
sa(dp21
g2
VFrom Donald Trump: \u201cI\u2019m so proud of my wife Melania and the launch of her new jewelry line, to debut on QVC on April 30th at 9 p.m.\u201d
p22
sg4
V1:18 PM - 26 Feb 2010
p23
sa(dp24
g2
VDonald Trump appeared on the final episode of The Jay Leno Show to deliver a very special message: http://bit.ly/cv1En7
p25
sg4
V11:57 AM - 11 Feb 2010
p26
sa(dp27
g2
VI am happy to announce that theoriginal Apprentice --which will offer job opportunities to those in need--is coming back.
p28
sg4
V11:17 AM - 18 Mar 2010
p29
sa(dp30
g2
VOlympic Gold  Medalist Evan Lysacek just left my office. He is in town and wanted to meet me--he's a fanastic guy and a true champion.
p31
sg4
V8:14 AM - 17 Mar 2010
p32
sa(dp33
g2
VThe new season of the Celebrity Apprentice is off to a great start-- last night it swept the 10 p.m. hour in every key demographic.
p34
sg4
V11:21 AM - 15 Mar 2010
p35
sa(dp36
g2
VThe Celebrity Apprentice has a two-hour premiere this Sunday, March 14th, at 9 p.m. on NBC. This will be the best season yet, see you then!
p37
sg4
V12:30 PM - 12 Mar 2010
p38
sa(dp39
g2
VThe NYC casting call for The Apprentice is thisThursday, April 1 at Trump Tower. For all the information you need, go to NBC.com/casting.
p40
sg4
V12:31 PM - 29 Mar 2010
p41
sa(dp42
g2
VDon't forget the open call at Trump Tower tomorrow for The Apprentice. I look forward to seeing you there.
p43
sg4
V6:41 AM - 31 Mar 2010
p44
sa(dp45
g2
VThe original Apprentice is coming back--do you have what it takes to be the next Apprentice? For casting details: http://tinyurl.com/yly2c8u
p46
sg4
V10:13 AM - 24 Mar 2010
p47
sa(dp48
g2
VThe Trump Hotel Collection is currently nominated for Conde Nast Traveler Readers Choice Awards, Travel & Leisure and World Travel Awards.
p49
sg4
V9:26 AM - 23 Mar 2010
p50
sa(dp51
g2
VDon't forget the open call at Trump Tower tomorrow for The Apprentice. I look forward to seeing you there.
p52
sg4
V6:41 AM - 31 Mar 2010
p53
sa(dp54
g2
VThe NYC casting call for The Apprentice is thisThursday, April 1 at Trump Tower. For all the information you need, go to NBC.com/casting.
p55
sg4
V12:31 PM - 29 Mar 2010
p56
sa(dp57
g2
VThe original Apprentice is coming back--do you have what it takes to be the next Apprentice? For casting details: http://tinyurl.com/yly2c8u
p58
sg4
V10:13 AM - 24 Mar 2010
p59
sa(dp60
g2
VThe Trump Hotel Collection is currently nominated for Conde Nast Traveler Readers Choice Awards, Travel & Leisure and World Travel Awards.
p61
sg4
V9:26 AM - 23 Mar 2010
p62
sa(dp63
g2
VLast week's episode of the Celebrity Apprentice set the stage for a great new season. Tune in this Sunday on NBC for even more excitement.
p64
sg4
V7:08 AM - 19 Mar 2010
p65
sa(dp66
g2
VI am happy to announce that theoriginal Apprentice --which will offer job opportunities to those in need--is coming back.
p67
sg4
V11:17 AM - 18 Mar 2010
p68
sa(dp69
g2
VOlympic Gold  Medalist Evan Lysacek just left my office. He is in town and wanted to meet me--he's a fanastic guy and a true champion.
p70
sg4
V8:14 AM - 17 Mar 2010
p71
sa(dp72
g2
VThe new season of the Celebrity Apprentice is off to a great start-- last night it swept the 10 p.m. hour in every key demographic.
p73
sg4
V11:21 AM - 15 Mar 2010
p74
sa(dp75
g2
VMelania and I will be appearing on Larry King Live tonight, 9 p.m. on CNN. Be sure to tune in for some great conversation!
p76
sg4
V7:13 AM - 28 Apr 2010
p77
sa(dp78
g2
VMelania and I saw American Idiot on Broadway last night and it was great. An amazing  theatrical experience!
p79
sg4
V7:43 AM - 21 Apr 2010
p80
sa(dp81
g2
VTune in to The Marriage Ref onThursday night at 10 p.m. on NBC--I'm on the panel of experts along with Gloria Estefan & Adam Carolla.
p82
sg4
V1:12 PM - 20 Apr 2010
p83
sa(dp84
g2
VThis is a terrific day for downtown New York. Trump SoHo is unlike anything else. Be sure to visit this fantastic hotel soon!
p85
sg4
V9:36 AM - 9 Apr 2010
p86
sa(dp87
g2
VMelania will be on QVC tomorrow night at 9 p.m. ET to introduce her beautiful and inspiring Melania Timepieces & Fashion Jewelry collection.
p88
sg4
V8:22 AM - 29 Apr 2010
p89
sa(dp90
g2
VBe sure to look for my beautiful wife Melania Trump tonight on QVC at 9 pm ET where she will be debuting her fantastic jewelry collection.
p91
sg4
V8:53 AM - 30 Apr 2010
p92
sa(dp93
g2
VOur thoughts and prayers remain with Bret Michaels and his family and for his speedy recovery.
p94
sg4
V6:58 AM - 26 Apr 2010
p95
sa(dp96
g2
VTo put on your calendar for May: Miss USA 2010, live from Las Vegas on May 16th, 7 p.m. ET on NBC. I'll be there--tune in for a great show!
p97
sg4
V8:22 AM - 23 Apr 2010
p98
sa(dp99
g2
VMelania and I will be appearing on The View tomorrow at 11 a.m. on CBS. Tune in for some great fun!
p100
sg4
V7:31 AM - 22 Apr 2010
p101
sa(dp102
g2
VOn Sunday, Jerome Bettis 'the bus' from the Pittsburgh Steelers will play at Trump Int'l Golf Club/Palm Beach against Julius Erving 'Dr J'
p103
sg4
V8:55 AM - 16 Apr 2010
p104
sa(dp105
g2
V"Before Kids Can Go Places, They Need a Place To Go" -- the motto of The Police Athletic League, an organization I'm  very proud to support
p106
sg4
V1:49 PM - 14 Apr 2010
p107
sa(dp108
g2
VLooking forward to seeing the World Champion Yankees today on opening day!
p109
sg4
V6:49 AM - 13 Apr 2010
p110
sa(dp111
g2
VThe premiere of "Donald J. Trump's Fabulous World of Golf" is tomorrow night at 9 p.m.\u000aET on Golf Channel. Tune in for a great adventure!
p112
sg4
V10:37 AM - 12 Apr 2010
p113
sa(dp114
g2
VTrump SoHo opens this Friday and it is fantastic! Check out the Trump Hotel Collection...\u000ahttp://www.trump.com/
p115
sg4
V12:23 PM - 7 Apr 2010
p116
sa(dp117
g2
VMy bestselling book from last April, Think Like a Champion, is now available in paperback. It's inspiring, entertaining, and a great read.
p118
sg4
V11:08 AM - 6 Apr 2010
p119
sa(dp120
g2
VThen we attended the Scottish fashion show that benefits veterans, Dressed to Kilt 2010, which I co-hosted with Sir Sean and Lady Connery.
p121
sg4
V7:34 AM - 6 Apr 2010
p122
sa(dp123
g2
VBe sure to look for my beautiful wife Melania Trump tonight on QVC at 9 pm ET where she will be debuting her fantastic jewelry collection.
p124
sg4
V8:53 AM - 30 Apr 2010
p125
sa(dp126
g2
VMelania will be on QVC tomorrow night at 9 p.m. ET to introduce her beautiful and inspiring Melania Timepieces & Fashion Jewelry collection.
p127
sg4
V8:22 AM - 29 Apr 2010
p128
sa(dp129
g2
VMelania and I will be appearing on Larry King Live tonight, 9 p.m. on CNN. Be sure to tune in for some great conversation!
p130
sg4
V7:13 AM - 28 Apr 2010
p131
sa(dp132
g2
VOur thoughts and prayers remain with Bret Michaels and his family and for his speedy recovery.
p133
sg4
V6:58 AM - 26 Apr 2010
p134
sa(dp135
g2
VTo put on your calendar for May: Miss USA 2010, live from Las Vegas on May 16th, 7 p.m. ET on NBC. I'll be there--tune in for a great show!
p136
sg4
V8:22 AM - 23 Apr 2010
p137
sa(dp138
g2
VMelania and I will be appearing on The View tomorrow at 11 a.m. on CBS. Tune in for some great fun!
p139
sg4
V7:31 AM - 22 Apr 2010
p140
sa(dp141
g2
VMelania and I saw American Idiot on Broadway last night and it was great. An amazing  theatrical experience!
p142
sg4
V7:43 AM - 21 Apr 2010
p143
sa(dp144
g2
VTune in to The Marriage Ref onThursday night at 10 p.m. on NBC--I'm on the panel of experts along with Gloria Estefan & Adam Carolla.
p145
sg4
V1:12 PM - 20 Apr 2010
p146
sa(dp147
g2
VOn Sunday, Jerome Bettis 'the bus' from the Pittsburgh Steelers will play at Trump Int'l Golf Club/Palm Beach against Julius Erving 'Dr J'
p148
sg4
V8:55 AM - 16 Apr 2010
p149
sa(dp150
g2
V"Before Kids Can Go Places, They Need a Place To Go" -- the motto of The Police Athletic League, an organization I'm  very proud to support
p151
sg4
V1:49 PM - 14 Apr 2010
p152
sa(dp153
g2
VLooking forward to seeing the World Champion Yankees today on opening day!
p154
sg4
V6:49 AM - 13 Apr 2010
p155
sa(dp156
g2
VThe premiere of "Donald J. Trump's Fabulous World of Golf" is tomorrow night at 9 p.m.\u000aET on Golf Channel. Tune in for a great adventure!
p157
sg4
V10:37 AM - 12 Apr 2010
p158
sa(dp159
g2
VThis is a terrific day for downtown New York. Trump SoHo is unlike anything else. Be sure to visit this fantastic hotel soon!
p160
sg4
V9:36 AM - 9 Apr 2010
p161
sa(dp162
g2
VTrump SoHo opens this Friday and it is fantastic! Check out the Trump Hotel Collection...\u000ahttp://www.trump.com/
p163
sg4
V12:23 PM - 7 Apr 2010
p164
sa(dp165
g2
VMy bestselling book from last April, Think Like a Champion, is now available in paperback. It's inspiring, entertaining, and a great read.
p166
sg4
V11:08 AM - 6 Apr 2010
p167
sa(dp168
g2
VThen we attended the Scottish fashion show that benefits veterans, Dressed to Kilt 2010, which I co-hosted with Sir Sean and Lady Connery.
p169
sg4
V7:34 AM - 6 Apr 2010
p170
sa(dp171
g2
VLooking forward to the 2010 Miss USA Pageant, Sunday May 16 on NBC, 7 p.m. ET, hosted by Curtis Stone & Natalie Morales live from Las Vegas.
p172
sg4
V2:53 PM - 13 May 2010
p173
sa(dp174
g2
VWe're all very happy to hear of Bret Michael's progress and send our best wishes for his full recovery.
p175
sg4
V12:57 PM - 5 May 2010
p176
sa(dp177
g2
VAlso appearing on the Miss USA Pageant will be Country Superstar Trace Adkins and Pop Rock Sensation Boys Like Girls...
p178
sg4
V9:38 AM - 3 May 2010
p179
sa(dp180
g2
VScotland is beautiful. I spent several years looking for the right place, visiting over 200 sites, and this is absolutely the right place!
p181
sg4
V6:51 AM - 26 May 2010
p182
sa(dp183
g2
VThe ratings for the Celebrity Apprentice were fantastic and everyone had a great time. It was a terrific season -- congrats to everyone!
p184
sg4
V8:31 AM - 25 May 2010
p185
sa(dp186
g2
VWishing everyone a Happy Memorial Day Weekend, with a special thought for all the veterans who have done so much for our freedom.
p187
sg4
V9:24 AM - 28 May 2010
p188
sa(dp189
g2
VThe Dunes here are amazing, and  they're how I learned about geomorphology, which is the study of movement landforms. We've had a great trip
p190
sg4
V10:24 AM - 27 May 2010
p191
sa(dp192
g2
VThe North Coast of Scotland is spectacular--the sea, the sand dunes, the rolling bluffs--we walked the course and it is fantastic.
p193
sg4
V12:59 PM - 26 May 2010
p194
sa(dp195
g2
VIvanka caught up with Bret and Holly backstage. Both Bret and Holly were champions all the way.   http://bit.ly/ckmKKU
p196
sg4
V6:16 AM - 25 May 2010
p197
sa(dp198
g2
VCongratulations to Bret Michaels, the new Celebrity Apprentice. Bret's a true champion, all of us were happy to see him and to see him win!
p199
sg4
V8:03 AM - 24 May 2010
p200
sa(dp201
g2
VWho's your pick--@bretmichaels or @hollyrpeete ? Vote now on Ivanka's new Facebook page! http://ow.ly/1NfMt
p202
sg4
V6:54 AM - 21 May 2010
p203
sa(dp204
g2
VThe latest update on Bret Michaels is that he's making every effort to attend the live finale of Celebrity Apprentice on Sunday--so tune in!
p205
sg4
V9:22 AM - 20 May 2010
p206
sa(dp207
g2
VCheck out Ivanka's new FaceBook page and keep up with what's happening--from The Celebrity Apprentice, to jewlery to free tickets and more..
p208
sg4
V7:33 AM - 20 May 2010
p209
sa(dp210
g2
VPut  this on your calendar: The Celebrity Apprentice live finale is this Sunday at 9 p.m. on NBC. Who will be the next Celebrity Apprentice?
p211
sg4
V9:58 AM - 19 May 2010
p212
sa(dp213
g2
VCongratulations to our new Miss USA,  the beautiful Rima Fakih.  Rima will represent us well at Miss Universe and be a wonderful Miss USA .
p214
sg4
V9:48 AM - 17 May 2010
p215
sa(dp216
g2
VWishing everyone a Happy Memorial Day Weekend, with a special thought for all the veterans who have done so much for our freedom.
p217
sg4
V9:24 AM - 28 May 2010
p218
sa(dp219
g2
VThe Dunes here are amazing, and  they're how I learned about geomorphology, which is the study of movement landforms. We've had a great trip
p220
sg4
V10:24 AM - 27 May 2010
p221
sa(dp222
g2
VThe North Coast of Scotland is spectacular--the sea, the sand dunes, the rolling bluffs--we walked the course and it is fantastic.
p223
sg4
V12:59 PM - 26 May 2010
p224
sa(dp225
g2
VScotland is beautiful. I spent several years looking for the right place, visiting over 200 sites, and this is absolutely the right place!
p226
sg4
V6:51 AM - 26 May 2010
p227
sa(dp228
g2
VThe ratings for the Celebrity Apprentice were fantastic and everyone had a great time. It was a terrific season -- congrats to everyone!
p229
sg4
V8:31 AM - 25 May 2010
p230
sa(dp231
g2
VIvanka caught up with Bret and Holly backstage. Both Bret and Holly were champions all the way.   http://bit.ly/ckmKKU
p232
sg4
V6:16 AM - 25 May 2010
p233
sa(dp234
g2
VCongratulations to Bret Michaels, the new Celebrity Apprentice. Bret's a true champion, all of us were happy to see him and to see him win!
p235
sg4
V8:03 AM - 24 May 2010
p236
sa(dp237
g2
VWho's your pick--@bretmichaels or @hollyrpeete ? Vote now on Ivanka's new Facebook page! http://ow.ly/1NfMt
p238
sg4
V6:54 AM - 21 May 2010
p239
sa(dp240
g2
VThe latest update on Bret Michaels is that he's making every effort to attend the live finale of Celebrity Apprentice on Sunday--so tune in!
p241
sg4
V9:22 AM - 20 May 2010
p242
sa(dp243
g2
VCheck out Ivanka's new FaceBook page and keep up with what's happening--from The Celebrity Apprentice, to jewlery to free tickets and more..
p244
sg4
V7:33 AM - 20 May 2010
p245
sa(dp246
g2
VPut  this on your calendar: The Celebrity Apprentice live finale is this Sunday at 9 p.m. on NBC. Who will be the next Celebrity Apprentice?
p247
sg4
V9:58 AM - 19 May 2010
p248
sa(dp249
g2
VCongratulations to our new Miss USA,  the beautiful Rima Fakih.  Rima will represent us well at Miss Universe and be a wonderful Miss USA .
p250
sg4
V9:48 AM - 17 May 2010
p251
sa(dp252
g2
VLooking forward to the 2010 Miss USA Pageant, Sunday May 16 on NBC, 7 p.m. ET, hosted by Curtis Stone & Natalie Morales live from Las Vegas.
p253
sg4
V2:53 PM - 13 May 2010
p254
sa(dp255
g2
VWe're all very happy to hear of Bret Michael's progress and send our best wishes for his full recovery.
p256
sg4
V12:57 PM - 5 May 2010
p257
sa(dp258
g2
VProviding backstage commentary at the Miss USA Pageant will be comedic mother-daughter duo Joan and Melissa Rivers. A fantastic lineup!
p259
sg4
V9:43 AM - 3 May 2010
p260
sa(dp261
g2
VTune in tonight at 9 pm on TV One for "The Ultimate Merger" starring the one and only Omarosa and twelve brave bachelors ...
p262
sg4
V7:36 AM - 17 Jun 2010
p263
sa(dp264
g2
VTonight I trade places with Larry King @kingsthings and interview him on the 25th anniversary of his show. 9PM on CNN featuring best clips.
p265
sg4
V4:33 PM - 5 Jun 2010
p266
sa(dp267
g2
VI'll be turning the table on Larry King this Saturday night.  I'll be interviewing him in honor of the 25th Anniversary of his show.
p268
sg4
V1:37 PM - 2 Jun 2010
p269
sa(dp270
g2
VI am honored to be chosen by Gray Line for their NY Ride of Fame Campaign. Today we had the ribbon cutting ceremony in front of Trump Tower.
p271
sg4
V11:55 AM - 8 Jun 2010
p272
sa(dp273
g2
VHad a fantastic dinner last night at Quattro, in the Trump SoHo Hotel. It's already one of the hottest new restaurants in the city.
p274
sg4
V6:49 AM - 15 Jun 2010
p275
sa(dp276
g2
V"Trading Shots with Donald Trump"--a great article in the Wall Street Journal\u000ahttp://bit.ly/c9eZbq
p277
sg4
V7:22 AM - 28 Jun 2010
p278
sa(dp279
g2
VThe Eric Trump Foundation has raised over $1,000,000 towards St. Jude Children's Research Hospital.  http://twitter.com/EricTrumpFdn
p280
sg4
V11:44 AM - 24 Jun 2010
p281
sa(dp282
g2
VGreat job on the Larry King Live Gulf Telethon last night--$1.3 million was raised in 2 hours.
p283
sg4
V9:09 AM - 22 Jun 2010
p284
sa(dp285
g2
VFor more information on tonight's two hour telethon, 8 to 10 p.m.:  http://twitter.com/kingsthings
p286
sg4
V8:18 AM - 21 Jun 2010
p287
sa(dp288
g2
VTonight be sure to watch Melania and Ivanka on Larry King Live for a Celebrity Relief Telethon  http://larrykinglive.blogs.cnn.com/
p289
sg4
V6:18 AM - 21 Jun 2010
p290
sa(dp291
g2
VThe Ultimate Merger:  http://www.nydailynews.com/entertainment/tv/2010/06/17/2010-06-17_omarosa_is_back_and_this_time_its_personal.html
p292
sg4
V7:38 AM - 17 Jun 2010
p293
sa(dp294
g2
VAnd Trump SoHo New York is one of the hottest new hotels anywhere.... http://www.trump.com/Hotel_Collection/Trump_SoHo/Trump_SoHo.asp
p295
sg4
V6:51 AM - 15 Jun 2010
p296
sa(dp297
g2
VWSJ covers Ride of Fame http://online.wsj.com/article/SB10001424052748704575304575297082506166258.html?mod=WSJ_NY_RealEstate_MIDDLE_LSMini
p298
sg4
V9:10 AM - 10 Jun 2010
p299
sa(dp300
g2
VRima Fakih, our beautiful Miss USA, rode with me on the Gray Line Ride of Fame yesterday... \u000a http://www.missuniverse.com/missusa
p301
sg4
V6:46 AM - 9 Jun 2010
p302
sa(dp303
g2
VCheck out Gray Line's site for the Donald Trump Ride of Fame... http://www.newyorksightseeing.com/
p304
sg4
V6:03 AM - 9 Jun 2010
p305
sa(dp306
g2
V"Trading Shots with Donald Trump"--a great article in the Wall Street Journal\u000ahttp://bit.ly/c9eZbq
p307
sg4
V7:22 AM - 28 Jun 2010
p308
sa(dp309
g2
VThe Eric Trump Foundation has raised over $1,000,000 towards St. Jude Children's Research Hospital.  http://twitter.com/EricTrumpFdn
p310
sg4
V11:44 AM - 24 Jun 2010
p311
sa(dp312
g2
VGreat job on the Larry King Live Gulf Telethon last night--$1.3 million was raised in 2 hours.
p313
sg4
V9:09 AM - 22 Jun 2010
p314
sa(dp315
g2
VFor more information on tonight's two hour telethon, 8 to 10 p.m.:  http://twitter.com/kingsthings
p316
sg4
V8:18 AM - 21 Jun 2010
p317
sa(dp318
g2
VTonight be sure to watch Melania and Ivanka on Larry King Live for a Celebrity Relief Telethon  http://larrykinglive.blogs.cnn.com/
p319
sg4
V6:18 AM - 21 Jun 2010
p320
sa(dp321
g2
VThe Ultimate Merger:  http://www.nydailynews.com/entertainment/tv/2010/06/17/2010-06-17_omarosa_is_back_and_this_time_its_personal.html
p322
sg4
V7:38 AM - 17 Jun 2010
p323
sa(dp324
g2
VTune in tonight at 9 pm on TV One for "The Ultimate Merger" starring the one and only Omarosa and twelve brave bachelors ...
p325
sg4
V7:36 AM - 17 Jun 2010
p326
sa(dp327
g2
VAnd Trump SoHo New York is one of the hottest new hotels anywhere.... http://www.trump.com/Hotel_Collection/Trump_SoHo/Trump_SoHo.asp
p328
sg4
V6:51 AM - 15 Jun 2010
p329
sa(dp330
g2
VHad a fantastic dinner last night at Quattro, in the Trump SoHo Hotel. It's already one of the hottest new restaurants in the city.
p331
sg4
V6:49 AM - 15 Jun 2010
p332
sa(dp333
g2
VWSJ covers Ride of Fame http://online.wsj.com/article/SB10001424052748704575304575297082506166258.html?mod=WSJ_NY_RealEstate_MIDDLE_LSMini
p334
sg4
V9:10 AM - 10 Jun 2010
p335
sa(dp336
g2
VRima Fakih, our beautiful Miss USA, rode with me on the Gray Line Ride of Fame yesterday... \u000a http://www.missuniverse.com/missusa
p337
sg4
V6:46 AM - 9 Jun 2010
p338
sa(dp339
g2
VCheck out Gray Line's site for the Donald Trump Ride of Fame... http://www.newyorksightseeing.com/
p340
sg4
V6:03 AM - 9 Jun 2010
p341
sa(dp342
g2
VI am honored to be chosen by Gray Line for their NY Ride of Fame Campaign. Today we had the ribbon cutting ceremony in front of Trump Tower.
p343
sg4
V11:55 AM - 8 Jun 2010
p344
sa(dp345
g2
VTonight I trade places with Larry King @kingsthings and interview him on the 25th anniversary of his show. 9PM on CNN featuring best clips.
p346
sg4
V4:33 PM - 5 Jun 2010
p347
sa(dp348
g2
VBe sure to watch the Larry King Show tomorrow night on CNN, 9 p.m. I'll be the host, Larry the guest. http://larrykinglive.blogs.cnn.com/
p349
sg4
V11:08 AM - 4 Jun 2010
p350
sa(dp351
g2
VThe new edition of The Apprentice will be on Thursdays this fall at 10 pm ET---I'm putting people back to work!
p352
sg4
V7:52 AM - 6 Jul 2010
p353
sa(dp354
g2
VDue to popular demand, CNN will re-broadcast  the Larry King Live show I hosted in June, in which I interview Larry. Monday July 5, 9 pm CNN
p355
sg4
V8:27 AM - 2 Jul 2010
p356
sa(dp357
g2
VI'm proud to accept the 2010 HollyRod Foundation Humanitarian Award from Holly Robinson Peete, who raised $700,000 on Celebrity Apprentice
p358
sg4
V8:10 AM - 20 Jul 2010
p359
sa(dp360
g2
VGeorge Steinbrenner was a great friend and a true legend. There will never be anyone like him in New York. We've lost a truly great man.
p361
sg4
V9:28 AM - 14 Jul 2010
p362
sa(dp363
g2
VWishing everyone a wonderful Independence Day weekend. We have a lot to be thankful for.
p364
sg4
V6:41 AM - 2 Jul 2010
p365
sa(dp366
g2
VEnter the contest....http://www.facebook.com/sertamattress...and stay at Trump International Hotel Las Vegas
p367
sg4
V8:41 AM - 30 Jul 2010
p368
sa(dp369
g2
VI'm helping the Serta Counting Sheep get back to work. Enter the contest http://www.facebook.com/sertamattress and win a trip to Las Vegas..
p370
sg4
V2:07 PM - 29 Jul 2010
p371
sa(dp372
g2
VCould this be my newest apprentice? http://www.youtube.com/user/MattressSerta ...Enter the contest .. .http://www.facebook.com/sertamattress
p373
sg4
V2:03 PM - 29 Jul 2010
p374
sa(dp375
g2
Vand yet another ...all of them are spectacular.  http://www.trump.com/Golf_Clubs/Westchester/Westchester.asp
p376
sg4
V2:03 PM - 19 Jul 2010
p377
sa(dp378
g2
Vand here's another....http://www.trump.com/Golf_Clubs/Colts_Neck/Colts_Neck.asp
p379
sg4
V1:36 PM - 19 Jul 2010
p380
sa(dp381
g2
VEnter the contest....http://www.facebook.com/sertamattress...and stay at Trump International Hotel Las Vegas
p382
sg4
V8:41 AM - 30 Jul 2010
p383
sa(dp384
g2
Vand stay at  the fantastic Trump International Hotel Las Vegas ...http://www.trump.com/Hotel_Collection/Trump_Las_Vegas/Trump_Las_Vegas.asp
p385
sg4
V2:13 PM - 29 Jul 2010
p386
sa(dp387
g2
VI'm helping the Serta Counting Sheep get back to work. Enter the contest http://www.facebook.com/sertamattress and win a trip to Las Vegas..
p388
sg4
V2:07 PM - 29 Jul 2010
p389
sa(dp390
g2
VCould this be my newest apprentice? http://www.youtube.com/user/MattressSerta ...Enter the contest .. .http://www.facebook.com/sertamattress
p391
sg4
V2:03 PM - 29 Jul 2010
p392
sa(dp393
g2
VI'm proud to accept the 2010 HollyRod Foundation Humanitarian Award from Holly Robinson Peete, who raised $700,000 on Celebrity Apprentice
p394
sg4
V8:10 AM - 20 Jul 2010
p395
sa(dp396
g2
Vand yet another ...all of them are spectacular.  http://www.trump.com/Golf_Clubs/Westchester/Westchester.asp
p397
sg4
V2:03 PM - 19 Jul 2010
p398
sa(dp399
g2
Vand here's another....http://www.trump.com/Golf_Clubs/Colts_Neck/Colts_Neck.asp
p400
sg4
V1:36 PM - 19 Jul 2010
p401
sa(dp402
g2
VVisited some very beautiful golf courses this weekend...this is one...http://www.trump.com/Golf_Clubs/Hudson_Valley/Hudson_Valley.asp
p403
sg4
V1:29 PM - 19 Jul 2010
p404
sa(dp405
g2
VGeorge Steinbrenner was a great friend and a true legend. There will never be anyone like him in New York. We've lost a truly great man.
p406
sg4
V9:28 AM - 14 Jul 2010
p407
sa(dp408
g2
VThe new edition of The Apprentice will be on Thursdays this fall at 10 pm ET---I'm putting people back to work!
p409
sg4
V7:52 AM - 6 Jul 2010
p410
sa(dp411
g2
VDue to popular demand, CNN will re-broadcast  the Larry King Live show I hosted in June, in which I interview Larry. Monday July 5, 9 pm CNN
p412
sg4
V8:27 AM - 2 Jul 2010
p413
sa(dp414
g2
VSpent a beautiful weekend golfing at Trump National Golf Club Westchester and Trump National Golf Club Bedminster.
p415
sg4
V12:50 PM - 30 Aug 2010
p416
sa(dp417
g2
VCongratulations to Miss Mexico, Jimena Navarrete, our new Miss Universe 2010, and congratulations to everyone for a fantastic show.
p418
sg4
V7:07 AM - 24 Aug 2010
p419
sa(dp420
g2
VIt's going to get hotter in Las Vegas tonight! Watch the Miss Universe Pageant tonight on NBC at 9 p.m. I'm looking forward to being there!
p421
sg4
V6:55 AM - 23 Aug 2010
p422
sa(dp423
g2
VThe original Apprentice returns with a two hour premiere on Thursday September 16th. Looking forward to a fantastic season!
p424
sg4
V11:35 AM - 19 Aug 2010
p425
sa(dp426
g2
VWent to the Yankees game last night with Bill O'Reilly--we had a great time watching the Yankees win!
p427
sg4
V1:00 PM - 31 Aug 2010
p428
sa(dp429
g2
VThe Miss Universe Pageant raked in some great ratings!  A great job by everyone.
p430
sg4
V1:42 PM - 26 Aug 2010
p431
sa(dp432
g2
VFour more days until the Miss Universe Pageant. Be sure to tune in on Monday night at 9 p.m. on NBC--it will be an amazing show.
p433
sg4
V12:15 PM - 19 Aug 2010
p434
sa(dp435
g2
VSo don't forget to enter the Serta Counting Sheep for Hire contest!  www.youtube.com/user/mattressserta
p436
sg4
V1:55 PM - 12 Aug 2010
p437
sa(dp438
g2
VThat trip would be to the Trump International Hotel Las Vegas...http://www.trump.com/Hotel_Collection/Trump_Las_Vegas/Trump_Las_Vegas.asp
p439
sg4
V1:52 PM - 12 Aug 2010
p440
sa(dp441
g2
VFriday is the last day to enter the Counting Sheep for Hire contest. Click here www.youtube.com/user/mattressserta and you could win a trip
p442
sg4
V1:49 PM - 12 Aug 2010
p443
sa(dp444
g2
VCheck out the last webisode www.youtube.com/user/mattressserta in our 3 part series featuring me with Serta. Which one was your favorite?
p445
sg4
V1:46 PM - 12 Aug 2010
p446
sa(dp447
g2
VEric's Sept. 14th event will be held at Trump National Golf Club Westchester. http://www.trump.com/Golf_Clubs/Westchester/Westchester.asp
p448
sg4
V7:46 AM - 12 Aug 2010
p449
sa(dp450
g2
VThe Eric Trump Foundation, September 14  https://www.erictrumpfoundation.com/?nd=ticket_list&fundraiser_id=8
p451
sg4
V7:32 AM - 12 Aug 2010
p452
sa(dp453
g2
VMark your calenders for August 23rd:  http://www.missuniverse.com/
p454
sg4
V6:38 AM - 9 Aug 2010
p455
sa(dp456
g2
VWent to the Yankees game last night with Bill O'Reilly--we had a great time watching the Yankees win!
p457
sg4
V1:00 PM - 31 Aug 2010
p458
sa(dp459
g2
VSpent a beautiful weekend golfing at Trump National Golf Club Westchester and Trump National Golf Club Bedminster.
p460
sg4
V12:50 PM - 30 Aug 2010
p461
sa(dp462
g2
VThe Miss Universe Pageant raked in some great ratings!  A great job by everyone.
p463
sg4
V1:42 PM - 26 Aug 2010
p464
sa(dp465
g2
VCongratulations to Miss Mexico, Jimena Navarrete, our new Miss Universe 2010, and congratulations to everyone for a fantastic show.
p466
sg4
V7:07 AM - 24 Aug 2010
p467
sa(dp468
g2
VIt's going to get hotter in Las Vegas tonight! Watch the Miss Universe Pageant tonight on NBC at 9 p.m. I'm looking forward to being there!
p469
sg4
V6:55 AM - 23 Aug 2010
p470
sa(dp471
g2
VFour more days until the Miss Universe Pageant. Be sure to tune in on Monday night at 9 p.m. on NBC--it will be an amazing show.
p472
sg4
V12:15 PM - 19 Aug 2010
p473
sa(dp474
g2
VThe original Apprentice returns with a two hour premiere on Thursday September 16th. Looking forward to a fantastic season!
p475
sg4
V11:35 AM - 19 Aug 2010
p476
sa(dp477
g2
VSo don't forget to enter the Serta Counting Sheep for Hire contest!  www.youtube.com/user/mattressserta
p478
sg4
V1:55 PM - 12 Aug 2010
p479
sa(dp480
g2
VThat trip would be to the Trump International Hotel Las Vegas...http://www.trump.com/Hotel_Collection/Trump_Las_Vegas/Trump_Las_Vegas.asp
p481
sg4
V1:52 PM - 12 Aug 2010
p482
sa(dp483
g2
VFriday is the last day to enter the Counting Sheep for Hire contest. Click here www.youtube.com/user/mattressserta and you could win a trip
p484
sg4
V1:49 PM - 12 Aug 2010
p485
sa(dp486
g2
VCheck out the last webisode www.youtube.com/user/mattressserta in our 3 part series featuring me with Serta. Which one was your favorite?
p487
sg4
V1:46 PM - 12 Aug 2010
p488
sa(dp489
g2
VCheck out the last webisode in our 3 part series featuring me with Serta. Which one was your favorite?  www.youtube.com/user/mattressserta
p490
sg4
V1:35 PM - 12 Aug 2010
p491
sa(dp492
g2
VEric's Sept. 14th event will be held at Trump National Golf Club Westchester. http://www.trump.com/Golf_Clubs/Westchester/Westchester.asp
p493
sg4
V7:46 AM - 12 Aug 2010
p494
sa(dp495
g2
VThe Eric Trump Foundation, September 14  https://www.erictrumpfoundation.com/?nd=ticket_list&fundraiser_id=8
p496
sg4
V7:32 AM - 12 Aug 2010
p497
sa(dp498
g2
VMark your calenders for August 23rd:  http://www.missuniverse.com/
p499
sg4
V6:38 AM - 9 Aug 2010
p500
sa(dp501
g2
VI am very happy to have the civilian version of "The Apprentice" back on the air this fall. There will be excitement as well as opportunity.
p502
sg4
V1:52 PM - 14 Sep 2010
p503
sa(dp504
g2
VI was invited by Caroline Wozniacki to sit with her family in her special box during her match at the U.S. Open yesterday. She's fantastic!
p505
sg4
V9:06 AM - 7 Sep 2010
p506
sa(dp507
g2
VDon't forget to tune in tonight for the two hour premiere of The Apprentice. 9 pm EST on NBC. We're all in for a fantastic new season!
p508
sg4
V8:25 AM - 16 Sep 2010
p509
sa(dp510
g2
VI'll be on The Late Show with David Letterman tonight--be sure to tune in for a great show. 11:30 pm on CBS.
p511
sg4
V2:38 PM - 1 Sep 2010
p512
sa(dp513
g2
VTune in tonight at 10 pm on NBC for another exciting episode of The Apprentice -- and see the Dog Whisperer make an appearance.
p514
sg4
V8:10 AM - 30 Sep 2010
p515
sa(dp516
g2
VSee the new sizzle reel for The Apprentice   http://bit.ly/ax8nah
p517
sg4
V1:27 PM - 24 Sep 2010
p518
sa(dp519
g2
VDon't forget to tune in tonight at 10 p.m. on NBC for another action packed episode of The Apprentice.   http://bit.ly/bnAuAv
p520
sg4
V11:22 AM - 23 Sep 2010
p521
sa(dp522
g2
VBe sure to tune in for Melania's second QVC show for "Melania Timepieces & Jewelry"  tonight, live from 9-10 pm on QVC http://bit.ly/aDdvKj
p523
sg4
V11:55 AM - 17 Sep 2010
p524
sa(dp525
g2
VEric did a great job with his Eric Trump Foundation annual charity outing. I'm proud of him.  http://bit.ly/c1y3c3
p526
sg4
V6:43 AM - 15 Sep 2010
p527
sa(dp528
g2
VComing up soon: The two hour premiere of The Apprentice. Next Thursday, September 16th, at 9  pm on NBC.    http://bit.ly/bMB4CH
p529
sg4
V9:29 AM - 9 Sep 2010
p530
sa(dp531
g2
VThere's a lot going on at the Eric Trump Foundation ...  http://bit.ly/9rJ0sn
p532
sg4
V11:07 AM - 7 Sep 2010
p533
sa(dp534
g2
VTune in tonight at 10 pm on NBC for another exciting episode of The Apprentice -- and see the Dog Whisperer make an appearance.
p535
sg4
V8:10 AM - 30 Sep 2010
p536
sa(dp537
g2
VSee the new sizzle reel for The Apprentice   http://bit.ly/ax8nah
p538
sg4
V1:27 PM - 24 Sep 2010
p539
sa(dp540
g2
VDon't forget to tune in tonight at 10 p.m. on NBC for another action packed episode of The Apprentice.   http://bit.ly/bnAuAv
p541
sg4
V11:22 AM - 23 Sep 2010
p542
sa(dp543
g2
VBe sure to tune in for Melania's second QVC show for "Melania Timepieces & Jewelry"  tonight, live from 9-10 pm on QVC http://bit.ly/aDdvKj
p544
sg4
V11:55 AM - 17 Sep 2010
p545
sa(dp546
g2
VDon't forget to tune in tonight for the two hour premiere of The Apprentice. 9 pm EST on NBC. We're all in for a fantastic new season!
p547
sg4
V8:25 AM - 16 Sep 2010
p548
sa(dp549
g2
VEric did a great job with his Eric Trump Foundation annual charity outing. I'm proud of him.  http://bit.ly/c1y3c3
p550
sg4
V6:43 AM - 15 Sep 2010
p551
sa(dp552
g2
VI am very happy to have the civilian version of "The Apprentice" back on the air this fall. There will be excitement as well as opportunity.
p553
sg4
V1:52 PM - 14 Sep 2010
p554
sa(dp555
g2
VComing up soon: The two hour premiere of The Apprentice. Next Thursday, September 16th, at 9  pm on NBC.    http://bit.ly/bMB4CH
p556
sg4
V9:29 AM - 9 Sep 2010
p557
sa(dp558
g2
VThere's a lot going on at the Eric Trump Foundation ...  http://bit.ly/9rJ0sn
p559
sg4
V11:07 AM - 7 Sep 2010
p560
sa(dp561
g2
VI was invited by Caroline Wozniacki to sit with her family in her special box during her match at the U.S. Open yesterday. She's fantastic!
p562
sg4
V9:06 AM - 7 Sep 2010
p563
sa(dp564
g2
VCheck out Trump International Hotel & Tower New York --spectacular! http://www.trump.com/Hotel_Collection/Trump_New_york/Trump_New_York.asp
p565
sg4
V9:37 AM - 2 Sep 2010
p566
sa(dp567
g2
VI'm honored to be presented the award of Doctor of Business Administration Honoris Causa from Robert Gordon University in Aberdeen, Scotland
p568
sg4
V6:40 AM - 6 Oct 2010
p569
sa(dp570
g2
VDon't forget to tune in tonight for another exciting episode of The Apprentice--10 p.m. on NBC.
p571
sg4
V7:11 AM - 7 Oct 2010
p572
sa(dp573
g2
VBe sure to watch The Apprentice tonight, 10 p.m. on NBC--it's an episode you won't forget!
p574
sg4
V7:00 AM - 14 Oct 2010
p575
sa(dp576
g2
VI was on The View this morning. We talked about The Apprentice. Tonight's episode is a great one--tough, exciting and surprising. 10 pm/NBC
p577
sg4
V11:53 AM - 28 Oct 2010
p578
sa(dp579
g2
VBe prepared for a sensational episode of The Apprentice tomorrow night, 10 pm on NBC.
p580
sg4
V6:14 AM - 27 Oct 2010
p581
sa(dp582
g2
VAn HR solutions company polled 1,000 employed adults to find out who would make ideal bosses...   http://bit.ly/9uP9vj
p583
sg4
V10:48 AM - 14 Oct 2010
p584
sa(dp585
g2
VI was on The View this morning. We talked about The Apprentice. Tonight's episode is a great one--tough, exciting and surprising. 10 pm/NBC
p586
sg4
V11:53 AM - 28 Oct 2010
p587
sa(dp588
g2
VBe prepared for a sensational episode of The Apprentice tomorrow night, 10 pm on NBC.
p589
sg4
V6:14 AM - 27 Oct 2010
p590
sa(dp591
g2
VDon't forget to tune in tonight to see another unpredictable and exciting episode of The Apprentice-- 10 pm on NBC
p592
sg4
V9:38 AM - 21 Oct 2010
p593
sa(dp594
g2
VAn HR solutions company polled 1,000 employed adults to find out who would make ideal bosses...   http://bit.ly/9uP9vj
p595
sg4
V10:48 AM - 14 Oct 2010
p596
sa(dp597
g2
VBe sure to watch The Apprentice tonight, 10 p.m. on NBC--it's an episode you won't forget!
p598
sg4
V7:00 AM - 14 Oct 2010
p599
sa(dp600
g2
VScotland is beautiful and Trump Internatonal Golf Links-Scotland is progressing beautifully as well.  http://bit.ly/bUWWNb
p601
sg4
V7:22 AM - 7 Oct 2010
p602
sa(dp603
g2
VDon't forget to tune in tonight for another exciting episode of The Apprentice--10 p.m. on NBC.
p604
sg4
V7:11 AM - 7 Oct 2010
p605
sa(dp606
g2
VCongratulations to Evan Lysacek for being nominated SI sportsman of the year. He's a great guy, and he has my vote!  #EvanForSI
p607
sg4
V7:52 AM - 29 Nov 2010
p608
sa(dp609
g2
VWatch CNN tomorrow at 2 pm & 5 pm and on Friday at 7 pm & 11 pm for a Thanksgiving Special hosted by John King. I'll be a featured guest.
p610
sg4
V7:53 AM - 24 Nov 2010
p611
sa(dp612
g2
VTomorrow night's episode of The Apprentice delivers excitement at QVC along with appearances by Isaac Mizrahi and Cathie Black. 10 pm on NBC
p613
sg4
V9:20 AM - 24 Nov 2010
p614
sa(dp615
g2
VStaff Sgt. Salvatore A. Giunta received the Medal of Honor from Pres. Obama this month. It was a great honor to have him visit me today.
p616
sg4
V9:22 AM - 22 Nov 2010
p617
sa(dp618
g2
VWe're getting down to the wire on The Apprentice--tune in tonight for some great action! 10 p.m. on NBC.
p619
sg4
V7:45 AM - 18 Nov 2010
p620
sa(dp621
g2
VMy best wishes to everyone for a Happy Thanksgiving!
p622
sg4
V10:41 AM - 24 Nov 2010
p623
sa(dp624
g2
V"CNBC Titans: Donald Trump " will be shown Friday Nov 19th at 9 pm and 1 am, Sunday 11/21 at 9 pm and  11/24 at 7 pm   http://bit.ly/ckojPN
p625
sg4
V9:11 AM - 18 Nov 2010
p626
sa(dp627
g2
VMy interview last week with Greta van Susteren is available here in slightly abridged form. http://bit.ly/96ztOA  Good info to know about.
p628
sg4
V11:42 AM - 15 Nov 2010
p629
sa(dp630
g2
VTonight's episode of The Apprentice has a big surprise at the top of the show -- don't miss it! 10 p.m. on NBC.
p631
sg4
V7:20 AM - 11 Nov 2010
p632
sa(dp633
g2
VCongratulations to Evan Lysacek for being nominated SI sportsman of the year. He's a great guy, and he has my vote!  #EvanForSI
p634
sg4
V7:52 AM - 29 Nov 2010
p635
sa(dp636
g2
VMy best wishes to everyone for a Happy Thanksgiving!
p637
sg4
V10:41 AM - 24 Nov 2010
p638
sa(dp639
g2
VTomorrow night's episode of The Apprentice delivers excitement at QVC along with appearances by Isaac Mizrahi and Cathie Black. 10 pm on NBC
p640
sg4
V9:20 AM - 24 Nov 2010
p641
sa(dp642
g2
VWatch CNN tomorrow at 2 pm & 5 pm and on Friday at 7 pm & 11 pm for a Thanksgiving Special hosted by John King. I'll be a featured guest.
p643
sg4
V7:53 AM - 24 Nov 2010
p644
sa(dp645
g2
VStaff Sgt. Salvatore A. Giunta received the Medal of Honor from Pres. Obama this month. It was a great honor to have him visit me today.
p646
sg4
V9:22 AM - 22 Nov 2010
p647
sa(dp648
g2
V"CNBC Titans: Donald Trump " will be shown Friday Nov 19th at 9 pm and 1 am, Sunday 11/21 at 9 pm and  11/24 at 7 pm   http://bit.ly/ckojPN
p649
sg4
V9:11 AM - 18 Nov 2010
p650
sa(dp651
g2
VWe're getting down to the wire on The Apprentice--tune in tonight for some great action! 10 p.m. on NBC.
p652
sg4
V7:45 AM - 18 Nov 2010
p653
sa(dp654
g2
VMy interview last week with Greta van Susteren is available here in slightly abridged form. http://bit.ly/96ztOA  Good info to know about.
p655
sg4
V11:42 AM - 15 Nov 2010
p656
sa(dp657
g2
VTonight's episode of The Apprentice has a big surprise at the top of the show -- don't miss it! 10 p.m. on NBC.
p658
sg4
V7:20 AM - 11 Nov 2010
p659
sa(dp660
g2
VWIshing everyone a happy, healthy and prosperous New Year!
p661
sg4
V1:42 PM - 30 Dec 2010
p662
sa(dp663
g2
VWishing everyone a very Happy Holiday season!
p664
sg4
V8:26 AM - 23 Dec 2010
p665
sa(dp666
g2
VI'll be appearing on Larry King Live for his final show, Thursday night at 9 p.m., CNN. Larry's been on TV for 25 years...
p667
sg4
V12:55 PM - 14 Dec 2010
p668
sa(dp669
g2
VThose five hotels includeTrump International Hotel & Tower New York, Trump Soho New York, Trump International Hotel & Tower Chicago...
p670
sg4
V8:39 AM - 13 Dec 2010
p671
sa(dp672
g2
VAll the hotels currently open in the Trump Hotel Collection have been nominated for Travel & Leisure's "World's Best Awards 2011" .....
p673
sg4
V8:30 AM - 13 Dec 2010
p674
sa(dp675
g2
VDon't forget to watch Larry King tonight, CNN at 9 pm.  He's a television legend and a great friend. It's going to be a fantastic farewell.
p676
sg4
V6:30 AM - 16 Dec 2010
p677
sa(dp678
g2
V...Trump International Hotel Las Vegas, and Trump International Hotel & Tower Waikiki Beach Walk. http://tlworldsbest.roiresearch.com/.
p679
sg4
V8:42 AM - 13 Dec 2010
p680
sa(dp681
g2
VCongratulations to Brandy as our new Apprentice and to Clint for being a great player. It's been a terrific season!
p682
sg4
V6:42 AM - 10 Dec 2010
p683
sa(dp684
g2
VWIshing everyone a happy, healthy and prosperous New Year!
p685
sg4
V1:42 PM - 30 Dec 2010
p686
sa(dp687
g2
VWishing everyone a very Happy Holiday season!
p688
sg4
V8:26 AM - 23 Dec 2010
p689
sa(dp690
g2
VDon't forget to watch Larry King tonight, CNN at 9 pm.  He's a television legend and a great friend. It's going to be a fantastic farewell.
p691
sg4
V6:30 AM - 16 Dec 2010
p692
sa(dp693
g2
VI'll be appearing on Larry King Live for his final show, Thursday night at 9 p.m., CNN. Larry's been on TV for 25 years...
p694
sg4
V12:55 PM - 14 Dec 2010
p695
sa(dp696
g2
V...Trump International Hotel Las Vegas, and Trump International Hotel & Tower Waikiki Beach Walk. http://tlworldsbest.roiresearch.com/.
p697
sg4
V8:42 AM - 13 Dec 2010
p698
sa(dp699
g2
VThose five hotels includeTrump International Hotel & Tower New York, Trump Soho New York, Trump International Hotel & Tower Chicago...
p700
sg4
V8:39 AM - 13 Dec 2010
p701
sa(dp702
g2
VAll the hotels currently open in the Trump Hotel Collection have been nominated for Travel & Leisure's "World's Best Awards 2011" .....
p703
sg4
V8:30 AM - 13 Dec 2010
p704
sa(dp705
g2
VCongratulations to Brandy as our new Apprentice and to Clint for being a great player. It's been a terrific season!
p706
sg4
V6:42 AM - 10 Dec 2010
p707
sa.