(lp0
(dp1
S'text'
p2
VDon't forget to watch me tonight on Late Night with Jimmy Fallon, 12:35 a.m. on NBC. I'll be making a big announcement!
p3
sS'timestamp'
p4
V8:14 AM - 13 Jan 2011
p5
sa(dp6
g2
VThis afternoon I'll be speaking with Neil Cavuto on Your World with Neil Cavuto, 4 p.m. on FOX News.
p7
sg4
V11:35 AM - 12 Jan 2011
p8
sa(dp9
g2
VWatch Melania on QVC this morning from 10 a.m. to 11 a.m. with her third line of her "Melania Timepieces & Jewelry" collection...
p10
sg4
V6:04 AM - 31 Jan 2011
p11
sa(dp12
g2
VBusy doing phoners this week with Neil Cavuto, Wolf Blitzer, Fox & Friends, and Larry Kudlow....check out  http://shouldtrumprun.com/
p13
sg4
V9:20 AM - 21 Jan 2011
p14
sa(dp15
g2
VDon't miss my Fabulous World of Golf now in its second season on Golf Channel beginning tonight at 9 pm ET http://bit.ly/gcQjPR
p16
sg4
V6:25 AM - 31 Jan 2011
p17
sa(dp18
g2
V...when they have no environmental restrictions! America' s workers need us." http://shouldtrumprun.com/
p19
sg4
V1:14 PM - 27 Jan 2011
p20
sa(dp21
g2
VTHe people at shouldtrumprun.com have got it right! How are our factories supposed to compete with China and other countries...
p22
sg4
V1:13 PM - 27 Jan 2011
p23
sa(dp24
g2
VDon't miss my Fabulous World of Golf now in its second season on Golf Channel beginning tonight at 9 pm ET http://bit.ly/gcQjPR
p25
sg4
V6:25 AM - 31 Jan 2011
p26
sa(dp27
g2
VWatch Melania on QVC this morning from 10 a.m. to 11 a.m. with her third line of her "Melania Timepieces & Jewelry" collection...
p28
sg4
V6:04 AM - 31 Jan 2011
p29
sa(dp30
g2
V...when they have no environmental restrictions! America' s workers need us." http://shouldtrumprun.com/
p31
sg4
V1:14 PM - 27 Jan 2011
p32
sa(dp33
g2
VTHe people at shouldtrumprun.com have got it right! How are our factories supposed to compete with China and other countries...
p34
sg4
V1:13 PM - 27 Jan 2011
p35
sa(dp36
g2
VDon't miss my fabulous World of Golf now in its second season on Golf Channel beginning January 31 at 9 pm ET. Celebrity matches and more...
p37
sg4
V10:25 AM - 21 Jan 2011
p38
sa(dp39
g2
VBusy doing phoners this week with Neil Cavuto, Wolf Blitzer, Fox & Friends, and Larry Kudlow....check out  http://shouldtrumprun.com/
p40
sg4
V9:20 AM - 21 Jan 2011
p41
sa(dp42
g2
VDon't forget to watch me tonight on Late Night with Jimmy Fallon, 12:35 a.m. on NBC. I'll be making a big announcement!
p43
sg4
V8:14 AM - 13 Jan 2011
p44
sa(dp45
g2
VTHe Westminster Dog Show asked if I'd be interested in meeting Hickory, a Scottish Deerhound, who won Best in Show. She came to visit today!
p46
sg4
V12:59 PM - 16 Feb 2011
p47
sa(dp48
g2
VIt was great to appear on Piers Morgan Tonight last night as his first live guest. Piers won the Celebrity Apprentice and he's fantastic.
p49
sg4
V10:29 AM - 10 Feb 2011
p50
sa(dp51
g2
VBe sure to watch Oprah today (4 pm on Channel 7), I'll be on with my entire family and it will be an entertaining hour..http://bit.ly/f7wNY8
p52
sg4
V6:15 AM - 7 Feb 2011
p53
sa(dp54
g2
VComing up in March: The "Comedy Central Roast of Donald Trump." March 15, mark your calendars.  http://bit.ly/hYnA0E
p55
sg4
V9:36 AM - 28 Feb 2011
p56
sa(dp57
g2
VCheck out today's From The Desk Of Donald Trump at http://bit.ly/eXbfOw I'm willing to answer your questions, tweet me....
p58
sg4
V11:32 AM - 22 Feb 2011
p59
sa(dp60
g2
VCheck out today's video blog http://bit.ly/g75Jiu \u000aI want to answer more of your questions, tweet me.....
p61
sg4
V1:53 PM - 28 Feb 2011
p62
sa(dp63
g2
VALso coming up: The Celebrity Apprentice returns. Sunday night March 6 at 9 pm EST http://www.nbc.com/the-apprentice/
p64
sg4
V9:42 AM - 28 Feb 2011
p65
sa(dp66
g2
VI answered your questions in today's video... watch at http://bit.ly/hnzt5J
p67
sg4
V1:43 PM - 23 Feb 2011
p68
sa(dp69
g2
VCheck out my interview from MSNBC at http://on.msnbc.com/gAGniA
p70
sg4
V7:13 AM - 18 Feb 2011
p71
sa(dp72
g2
VWatch the latest From The Desk Of Donald Trump at http://bit.ly/f0kmi2 and read this article http://nydn.us/fpKQSY
p73
sg4
V2:48 PM - 17 Feb 2011
p74
sa(dp75
g2
VI was speaking with Don Imus this morning.... http://bit.ly/htvRfq
p76
sg4
V8:06 AM - 17 Feb 2011
p77
sa(dp78
g2
VFrom The Desk Of Donald Trump- two new videos up at http://bit.ly/hGKbS7 and http://bit.ly/ff8tRT
p79
sg4
V12:55 PM - 16 Feb 2011
p80
sa(dp81
g2
VCheck out ShouldTrumpRun....http://shouldtrumprun.com/
p82
sg4
V10:56 AM - 15 Feb 2011
p83
sa(dp84
g2
VCheck out today's video blog http://bit.ly/g75Jiu \u000aI want to answer more of your questions, tweet me.....
p85
sg4
V1:53 PM - 28 Feb 2011
p86
sa(dp87
g2
VALso coming up: The Celebrity Apprentice returns. Sunday night March 6 at 9 pm EST http://www.nbc.com/the-apprentice/
p88
sg4
V9:42 AM - 28 Feb 2011
p89
sa(dp90
g2
VComing up in March: The "Comedy Central Roast of Donald Trump." March 15, mark your calendars.  http://bit.ly/hYnA0E
p91
sg4
V9:36 AM - 28 Feb 2011
p92
sa(dp93
g2
VI answered your questions in today's video... watch at http://bit.ly/hnzt5J
p94
sg4
V1:43 PM - 23 Feb 2011
p95
sa(dp96
g2
VCheck out today's From The Desk Of Donald Trump at http://bit.ly/eXbfOw I'm willing to answer your questions, tweet me....
p97
sg4
V11:32 AM - 22 Feb 2011
p98
sa(dp99
g2
VCheck out my interview from MSNBC at http://on.msnbc.com/gAGniA
p100
sg4
V7:13 AM - 18 Feb 2011
p101
sa(dp102
g2
VWatch the latest From The Desk Of Donald Trump at http://bit.ly/f0kmi2 and read this article http://nydn.us/fpKQSY
p103
sg4
V2:48 PM - 17 Feb 2011
p104
sa(dp105
g2
VI was speaking with Don Imus this morning.... http://bit.ly/htvRfq
p106
sg4
V8:06 AM - 17 Feb 2011
p107
sa(dp108
g2
VTHe Westminster Dog Show asked if I'd be interested in meeting Hickory, a Scottish Deerhound, who won Best in Show. She came to visit today!
p109
sg4
V12:59 PM - 16 Feb 2011
p110
sa(dp111
g2
VFrom The Desk Of Donald Trump- two new videos up at http://bit.ly/hGKbS7 and http://bit.ly/ff8tRT
p112
sg4
V12:55 PM - 16 Feb 2011
p113
sa(dp114
g2
VCheck out ShouldTrumpRun....http://shouldtrumprun.com/
p115
sg4
V10:56 AM - 15 Feb 2011
p116
sa(dp117
g2
VFoxNewsInsider with comments on my speech at CPAC in Washington, DC http://www.youtube.com/watch?v=V96ftZPpIcw
p118
sg4
V6:38 AM - 15 Feb 2011
p119
sa(dp120
g2
VI was on CNN yesterday.....http://www.youtube.com/watch?v=hBp8N8706qA
p121
sg4
V6:27 AM - 15 Feb 2011
p122
sa(dp123
g2
VWatch my speech at CPAC in Washington DC yesterday ...http://www.youtube.com/watch?v=PR1b8yKxcAo
p124
sg4
V6:50 AM - 11 Feb 2011
p125
sa(dp126
g2
VWatch me tonight on The O'Reilly Factor at 8 pm and 11 pm EST, FOX News
p127
sg4
V6:54 AM - 30 Mar 2011
p128
sa(dp129
g2
VThe Comedy Central Roast of Donald Trump last week was the #1 highest rated Comedy Central Roast ever...it brought in 3.5 milion viewers
p130
sg4
V6:17 AM - 18 Mar 2011
p131
sa(dp132
g2
VI was on the TODAY Show this morning and then visited Regis & Kelly. The Celebrity Apprentice starts this Sunday night\u2014don\u2019t miss it!
p133
sg4
V7:47 AM - 2 Mar 2011
p134
sa(dp135
g2
VHey @SnoopDogg @ItstheSituation @SethMacFarlane: Oh, I'm real scared. #TrumpRoast airs tonight at 10:30/9:30 on @Comedy Central.
p136
sg4
V7:56 AM - 15 Mar 2011
p137
sa(dp138
g2
VMy latest Celebrity Apprentice video blog... http://bit.ly/dXGQKC
p139
sg4
V9:28 AM - 28 Mar 2011
p140
sa(dp141
g2
VMy appearance on The View... http://bit.ly/fk3utP and http://bit.ly/f5rTko
p142
sg4
V2:25 PM - 23 Mar 2011
p143
sa(dp144
g2
VCheck out my most recent interview with CNN... http://bit.ly/gXe2uL
p145
sg4
V1:58 PM - 22 Mar 2011
p146
sa(dp147
g2
VThis is about the money I gave to charity--and in response to your comments about Gadhafi... http://bit.ly/epuX9u
p148
sg4
V7:43 AM - 22 Mar 2011
p149
sa(dp150
g2
VMy thoughts on the Geico ad and more in today's video blog.... http://bit.ly/frcfZY
p151
sg4
V1:40 PM - 21 Mar 2011
p152
sa(dp153
g2
VI want to see people make lots of $$ and live better lives. I really think they can do that through TheTrumpNetwork http://trumpnetwork.com/
p154
sg4
V10:39 AM - 21 Mar 2011
p155
sa(dp156
g2
VHere are my thoughts on last night's episode of The Celebrity Apprentice... http://bit.ly/hBTQXG
p157
sg4
V8:39 AM - 21 Mar 2011
p158
sa(dp159
g2
VI spoke with Fox and Friends today watch here http://bit.ly/fMNVbx
p160
sg4
V6:48 AM - 21 Mar 2011
p161
sa(dp162
g2
VCheck out my interview on @GMA http://abcn.ws/ib1t1c
p163
sg4
V8:47 AM - 17 Mar 2011
p164
sa(dp165
g2
VCatch me on Fox News right now, my interview with Neil Cavuto http://bit.ly/fRKfrz
p166
sg4
V1:39 PM - 16 Mar 2011
p167
sa(dp168
g2
VSome of your most popular questions answered in today's video http://bit.ly/gv6TVh
p169
sg4
V9:04 AM - 16 Mar 2011
p170
sa(dp171
g2
VKeep talking about me: use #TrumpRoast to tweet about how good I look on @ComedyCentral tonight at 10:30/9:30c  http://bit.ly/hN3jow
p172
sg4
V1:28 PM - 15 Mar 2011
p173
sa(dp174
g2
VCheck out the Trump Fabulous World of Golf site to meet the Fazio family---master golf course designers....http://bit.ly/gi3q3E
p175
sg4
V8:34 AM - 15 Mar 2011
p176
sa(dp177
g2
VMy thoughts on last night's Celebrity Apprentice http://bit.ly/hiolBJ as well as my latest video blog at http://bit.ly/gKJL8x
p178
sg4
V1:15 PM - 14 Mar 2011
p179
sa(dp180
g2
VI will be developing the two tallest towers in the Republic of Georgia.  http://nyti.ms/e9u79i
p181
sg4
V1:09 PM - 10 Mar 2011
p182
sa(dp183
g2
VMore of your questions answered in today's video at http://bit.ly/f91yLo\u000aAlso here is my appearance on Neil Cavuto http://bit.ly/erRuo8
p184
sg4
V12:41 PM - 8 Mar 2011
p185
sa(dp186
g2
VCatch the second part of my interview with Bill O'Reilly tonight at 8pm on Fox News....
p187
sg4
V2:03 PM - 31 Mar 2011
p188
sa(dp189
g2
VMy thoughts on The O'Reilly Factor and more here... http://bit.ly/fMyIBI
p190
sg4
V9:09 AM - 31 Mar 2011
p191
sa(dp192
g2
VWatch my latest video blog.... http://bit.ly/icubEG
p193
sg4
V8:20 AM - 30 Mar 2011
p194
sa(dp195
g2
VWatch me tonight on The O'Reilly Factor at 8 pm and 11 pm EST, FOX News
p196
sg4
V6:54 AM - 30 Mar 2011
p197
sa(dp198
g2
VWatch me play both golf and baseball tonight on Donald J. Trump's Fabulous World of Golf 9PM ET on Golf Channel.. http://bit.ly/gcQjPR
p199
sg4
V11:05 AM - 28 Mar 2011
p200
sa(dp201
g2
VMy latest Celebrity Apprentice video blog... http://bit.ly/dXGQKC
p202
sg4
V9:28 AM - 28 Mar 2011
p203
sa(dp204
g2
VMy appearance on The View... http://bit.ly/fk3utP and http://bit.ly/f5rTko
p205
sg4
V2:25 PM - 23 Mar 2011
p206
sa(dp207
g2
VCheck out my most recent interview with CNN... http://bit.ly/gXe2uL
p208
sg4
V1:58 PM - 22 Mar 2011
p209
sa(dp210
g2
VThis is about the money I gave to charity--and in response to your comments about Gadhafi... http://bit.ly/epuX9u
p211
sg4
V7:43 AM - 22 Mar 2011
p212
sa(dp213
g2
VMy thoughts on the Geico ad and more in today's video blog.... http://bit.ly/frcfZY
p214
sg4
V1:40 PM - 21 Mar 2011
p215
sa(dp216
g2
VI want to see people make lots of $$ and live better lives. I really think they can do that through TheTrumpNetwork http://trumpnetwork.com/
p217
sg4
V10:39 AM - 21 Mar 2011
p218
sa(dp219
g2
VHere are my thoughts on last night's episode of The Celebrity Apprentice... http://bit.ly/hBTQXG
p220
sg4
V8:39 AM - 21 Mar 2011
p221
sa(dp222
g2
VI spoke with Fox and Friends today watch here http://bit.ly/fMNVbx
p223
sg4
V6:48 AM - 21 Mar 2011
p224
sa(dp225
g2
VDon't forget the Celebrity Apprentice, Sunday night at 9 pm on NBC for another surprising and exciting episode  http://bit.ly/bnAuAv
p226
sg4
V6:24 AM - 18 Mar 2011
p227
sa(dp228
g2
VThe Comedy Central Roast of Donald Trump last week was the #1 highest rated Comedy Central Roast ever...it brought in 3.5 milion viewers
p229
sg4
V6:17 AM - 18 Mar 2011
p230
sa(dp231
g2
VI'll be on with Larry Kudlow of the Kudlow Report tonight on CNBC at 7 p.m. We'll be discussing current affairs and politics. Tune in.
p232
sg4
V12:29 PM - 17 Mar 2011
p233
sa(dp234
g2
VCheck out my interview on @GMA http://abcn.ws/ib1t1c
p235
sg4
V8:47 AM - 17 Mar 2011
p236
sa(dp237
g2
VCatch me on Fox News right now, my interview with Neil Cavuto http://bit.ly/fRKfrz
p238
sg4
V1:39 PM - 16 Mar 2011
p239
sa(dp240
g2
V@shouldtrumprun Hundreds of thousands of supporters have already gone to and joined the movement at shouldtrumprun.com  \u000aHave you?
p241
sg4
V12:17 PM - 16 Mar 2011
p242
sa(dp243
g2
VSome of your most popular questions answered in today's video http://bit.ly/gv6TVh
p244
sg4
V9:04 AM - 16 Mar 2011
p245
sa(dp246
g2
VWatch as I humiliate a dais full of "talent."  #TrumpRoast airs tonight at 10:30/9:30c on Comedy Central  http://bit.ly/fugbyy
p247
sg4
V7:37 AM - 15 Mar 2011
p248
sa(dp249
g2
VTweet me more of your questions to answer in the next video....
p250
sg4
V2:07 PM - 14 Mar 2011
p251
sa(dp252
g2
VMy thoughts on last night's Celebrity Apprentice http://bit.ly/hiolBJ as well as my latest video blog at http://bit.ly/gKJL8x
p253
sg4
V1:15 PM - 14 Mar 2011
p254
sa(dp255
g2
VDon't forget to tune in to the Celebrity Apprentice this Sunday night, 9 pm on NBC. The fireworks continue....http://bit.ly/dWjzfS
p256
sg4
V12:31 PM - 11 Mar 2011
p257
sa(dp258
g2
VI will be developing the two tallest towers in the Republic of Georgia.  http://nyti.ms/e9u79i
p259
sg4
V1:09 PM - 10 Mar 2011
p260
sa(dp261
g2
VMore of your questions answered in today's video at http://bit.ly/f91yLo\u000aAlso here is my appearance on Neil Cavuto http://bit.ly/erRuo8
p262
sg4
V12:41 PM - 8 Mar 2011
p263
sa(dp264
g2
VMy thoughts on last night's Celebrity Apprentice http://bit.ly/eWM4T2 also an observation I made recently http://bit.ly/hQJERE
p265
sg4
V2:25 PM - 7 Mar 2011
p266
sa(dp267
g2
VMark it on your calendar: Comedy Central Roast, March 15th at 10:30 pm, for the Roast of Trump   http://bit.ly/hRIACH
p268
sg4
V11:01 AM - 7 Mar 2011
p269
sa(dp270
g2
VWatch You've Got Donald Trump at http://aol.it/fSOueW
p271
sg4
V7:12 AM - 4 Mar 2011
p272
sa(dp273
g2
VI appeared on David Letterman last night. And don't forget Sunday night---the first episode of Celebrity Apprentice will be on NBC at 9 pm.
p274
sg4
V6:52 AM - 3 Mar 2011
p275
sa(dp276
g2
VNew The Next Generation videos @donaldjtrumpjr- http://bit.ly/hJUJMg @ivankatrump- http://bit.ly/hXE6MF @erictrump- http://bit.ly/hJ0jNX
p277
sg4
V2:20 PM - 25 Apr 2011
p278
sa(dp279
g2
VMy appearances on @todayshow http://on.today.com/fXc3iE and @gma http://abcn.ws/elZtzZ
p280
sg4
V9:08 AM - 19 Apr 2011
p281
sa(dp282
g2
VBe sure to watch the Celebrity Apprentice on Sunday night, 9 pm on NBC. http://bit.ly/bnAuAv
p283
sg4
V6:05 AM - 29 Apr 2011
p284
sa(dp285
g2
VBe sure to watch the Celebrity Apprentice on Sunday night, 9 pm on NBC. http://bit.ly/bnAuAv
p286
sg4
V6:05 AM - 29 Apr 2011
p287
sa(dp288
g2
VNew The Next Generation videos @donaldjtrumpjr- http://bit.ly/hJUJMg @ivankatrump- http://bit.ly/hXE6MF @erictrump- http://bit.ly/hJ0jNX
p289
sg4
V2:20 PM - 25 Apr 2011
p290
sa(dp291
g2
VMy appearances on @todayshow http://on.today.com/fXc3iE and @gma http://abcn.ws/elZtzZ
p292
sg4
V9:08 AM - 19 Apr 2011
p293
sa(dp294
g2
VWishing everyone a Happy Memorial Day, and a thank you to all the soldiers who protected our great country.
p295
sg4
V7:46 AM - 27 May 2011
p296
sa(dp297
g2
VThis has been a very difficult decision regarding the Presidential run and I want to thank all my twitter fans for your fantastic support.
p298
sg4
V11:47 AM - 16 May 2011
p299
sa(dp300
g2
VNY Jets center, Nick Mangold, interns for Trump. Watch Trump's Fabulous World of Golf  tonight 9PM ET on Golf Channel\u000ahttp://bit.ly/fuRNsB
p301
sg4
V7:29 AM - 16 May 2011
p302
sa(dp303
g2
VGuests are raving about our exclusive hotel mattress and so we\u2019ve made it available for purchase!  http://bit.ly/sertahotel
p304
sg4
V12:23 PM - 13 May 2011
p305
sa(dp306
g2
V@TheRealMissUSA and the 2011 contestants stopped by Trump Tower yesterday, watch the video... http://bit.ly/jQkneQ #MissUSA #VEGASusa11
p307
sg4
V3:05 PM - 26 May 2011
p308
sa(dp309
g2
VCongratulations to John Rich and to Marlee Matlin for a terrific job throughout the season. You are both great! http://bit.ly/bnAuAv
p310
sg4
V9:22 AM - 23 May 2011
p311
sa(dp312
g2
VMy appearance on @foxandfriends from today.... http://bit.ly/lodlDT
p313
sg4
V9:03 AM - 23 May 2011
p314
sa(dp315
g2
VGet ready for some excitement--the live finale of the Celebrity Apprentice is on this Sunday night --don't miss it!  http://bit.ly/bnAuAv
p316
sg4
V8:57 AM - 20 May 2011
p317
sa(dp318
g2
VCheck out today's #trumpvlog about the upcoming episode of @ApprenticeNBC.... http://bit.ly/jyfGP3 #celebrityapprenticefinale
p319
sg4
V6:39 AM - 19 May 2011
p320
sa(dp321
g2
VVote for the next Miss USA... http://bit.ly/lxobOm #VEGASusa11 #MissUSA
p322
sg4
V2:10 PM - 17 May 2011
p323
sa(dp324
g2
VWishing everyone a Happy Memorial Day, and a thank you to all the soldiers who protected our great country.
p325
sg4
V7:46 AM - 27 May 2011
p326
sa(dp327
g2
V@TheRealMissUSA and the 2011 contestants stopped by Trump Tower yesterday, watch the video... http://bit.ly/jQkneQ #MissUSA #VEGASusa11
p328
sg4
V3:05 PM - 26 May 2011
p329
sa(dp330
g2
VCongratulations to John Rich and to Marlee Matlin for a terrific job throughout the season. You are both great! http://bit.ly/bnAuAv
p331
sg4
V9:22 AM - 23 May 2011
p332
sa(dp333
g2
VMy appearance on @foxandfriends from today.... http://bit.ly/lodlDT
p334
sg4
V9:03 AM - 23 May 2011
p335
sa(dp336
g2
VGet ready for some excitement--the live finale of the Celebrity Apprentice is on this Sunday night --don't miss it!  http://bit.ly/bnAuAv
p337
sg4
V8:57 AM - 20 May 2011
p338
sa(dp339
g2
VCheck out today's #trumpvlog about the upcoming episode of @ApprenticeNBC.... http://bit.ly/jyfGP3 #celebrityapprenticefinale
p340
sg4
V6:39 AM - 19 May 2011
p341
sa(dp342
g2
VVote for the next Miss USA... http://bit.ly/lxobOm #VEGASusa11 #MissUSA
p343
sg4
V2:10 PM - 17 May 2011
p344
sa(dp345
g2
VThis has been a very difficult decision regarding the Presidential run and I want to thank all my twitter fans for your fantastic support.
p346
sg4
V11:47 AM - 16 May 2011
p347
sa(dp348
g2
VNY Jets center, Nick Mangold, interns for Trump. Watch Trump's Fabulous World of Golf  tonight 9PM ET on Golf Channel\u000ahttp://bit.ly/fuRNsB
p349
sg4
V7:29 AM - 16 May 2011
p350
sa(dp351
g2
VGuests are raving about our exclusive hotel mattress and so we\u2019ve made it available for purchase!  http://bit.ly/sertahotel
p352
sg4
V12:23 PM - 13 May 2011
p353
sa(dp354
g2
VI was in San Jose, CA on Saturday for a sit-down interview for the ACN national meeting which was attended by over 20,000 people. Huge!
p355
sg4
V7:15 AM - 27 Jun 2011
p356
sa(dp357
g2
VOur new Miss USA, Alyssa Campanella, came up to my office today for a visit. We're proud to have her as our new title holder.
p358
sg4
V11:57 AM - 23 Jun 2011
p359
sa(dp360
g2
VCongratulations to the Miss USA Pageant--it was the #1 telecast of the night among ABC, CBS, NBC and Fox. A great show and a huge success.
p361
sg4
V6:58 AM - 21 Jun 2011
p362
sa(dp363
g2
VTweet me your questions for the next #trumpvlog....
p364
sg4
V3:15 PM - 2 Jun 2011
p365
sa(dp366
g2
VDid my weekly phoner on Fox & Friends this morning...sounding off on issues of the day ...      http://fxn.ws/kje8Yi 
p367
sg4
V8:14 AM - 27 Jun 2011
p368
sa(dp369
g2
V@GolfMagazine is having an online competition - vote\u2026 http://bit.ly/jKyS99 
p370
sg4
V1:50 PM - 24 Jun 2011
p371
sa(dp372
g2
VI've been visiting Trump Int'l Golf Links Scotland and the course will be unmatched anywhere in the world. Spectacular!  http://bit.ly/3Rv11n 
p373
sg4
V11:13 AM - 21 Jun 2011
p374
sa(dp375
g2
VCongratulations to Alyssa Campanella, Miss California---our new MIss USA!  http://bit.ly/13mpcY 
p376
sg4
V6:33 AM - 20 Jun 2011
p377
sa(dp378
g2
VDon't forget the Miss USA Pageant, live on Sunday night at 9 pm ET on NBC. And you can vote for your favorite beauty! http://bit.ly/3OkYR3 
p379
sg4
V1:42 PM - 16 Jun 2011
p380
sa(dp381
g2
VWatch me on the @hannityshow tonight at 9pm. More thoughts on Anthony Weiner in today's #trumpvlog\u2026
p382
sg4
V1:10 PM - 14 Jun 2011
p383
sa(dp384
g2
VNew on our YouTube channel today is a brand new #trumpdocumentary giving you a look inside the world of Trump Golf\u2026 http://bit.ly/k2Ue4w 
p385
sg4
V12:05 PM - 14 Jun 2011
p386
sa(dp387
g2
VYour most popular tweet answered, why I'm holding off on a Presidential bid... http://bit.ly/iF5pz6 #trumpvlog
p388
sg4
V10:26 AM - 9 Jun 2011
p389
sa(dp390
g2
VCheck out my speech from last Friday http://cs.pn/jf4OE1 as well as my appearance this morning on @foxandfriends http://bit.ly/kJWdvX.
p391
sg4
V7:47 AM - 6 Jun 2011
p392
sa(dp393
g2
VDid my weekly phoner on Fox & Friends this morning...sounding off on issues of the day ...      http://fxn.ws/kje8Yi 
p394
sg4
V8:14 AM - 27 Jun 2011
p395
sa(dp396
g2
VI was in San Jose, CA on Saturday for a sit-down interview for the ACN national meeting which was attended by over 20,000 people. Huge!
p397
sg4
V7:15 AM - 27 Jun 2011
p398
sa(dp399
g2
V@GolfMagazine is having an online competition - vote\u2026 http://bit.ly/jKyS99 
p400
sg4
V1:50 PM - 24 Jun 2011
p401
sa(dp402
g2
VOur new Miss USA, Alyssa Campanella, came up to my office today for a visit. We're proud to have her as our new title holder.
p403
sg4
V11:57 AM - 23 Jun 2011
p404
sa(dp405
g2
VI've been visiting Trump Int'l Golf Links Scotland and the course will be unmatched anywhere in the world. Spectacular!  http://bit.ly/3Rv11n 
p406
sg4
V11:13 AM - 21 Jun 2011
p407
sa(dp408
g2
VCongratulations to the Miss USA Pageant--it was the #1 telecast of the night among ABC, CBS, NBC and Fox. A great show and a huge success.
p409
sg4
V6:58 AM - 21 Jun 2011
p410
sa(dp411
g2
VCongratulations to Alyssa Campanella, Miss California---our new MIss USA!  http://bit.ly/13mpcY 
p412
sg4
V6:33 AM - 20 Jun 2011
p413
sa(dp414
g2
VDon't forget the Miss USA Pageant, live on Sunday night at 9 pm ET on NBC. And you can vote for your favorite beauty! http://bit.ly/3OkYR3 
p415
sg4
V1:42 PM - 16 Jun 2011
p416
sa(dp417
g2
VWatch me on the @hannityshow tonight at 9pm. More thoughts on Anthony Weiner in today's #trumpvlog\u2026
p418
sg4
V1:10 PM - 14 Jun 2011
p419
sa(dp420
g2
VNew on our YouTube channel today is a brand new #trumpdocumentary giving you a look inside the world of Trump Golf\u2026 http://bit.ly/k2Ue4w 
p421
sg4
V12:05 PM - 14 Jun 2011
p422
sa(dp423
g2
VYour most popular tweet answered, why I'm holding off on a Presidential bid... http://bit.ly/iF5pz6 #trumpvlog
p424
sg4
V10:26 AM - 9 Jun 2011
p425
sa(dp426
g2
VMy thoughts on Anthony Weiner in today's #trumpvlog... http://bit.ly/j0Lv8V
p427
sg4
V11:43 AM - 7 Jun 2011
p428
sa(dp429
g2
VCheck out my speech from last Friday http://cs.pn/jf4OE1 as well as my appearance this morning on @foxandfriends http://bit.ly/kJWdvX.
p430
sg4
V7:47 AM - 6 Jun 2011
p431
sa(dp432
g2
VTweet me your questions for the next #trumpvlog....
p433
sg4
V3:15 PM - 2 Jun 2011
p434
sa(dp435
g2
VI just got Mike Leach's new book,  Swing Your Sword. He's a great coach, and he's written a great book. It's definitely worth reading.
p436
sg4
V8:11 AM - 29 Jul 2011
p437
sa(dp438
g2
VFiscal mismanagement of cash costing US Taxpayer billions---cut fraud and waste before cutting funding for Seniors.
p439
sg4
V7:07 AM - 26 Jul 2011
p440
sa(dp441
g2
VThe Answer to both Social Security and Medicare is a robust growing economy---not cuts on the elderly.
p442
sg4
V11:38 AM - 25 Jul 2011
p443
sa(dp444
g2
VWhile @BarackObama seeks to further destroy  our credit, our economy continues to hemorrhage jobs. Such a total failure---as a President.
p445
sg4
V10:38 AM - 19 Jul 2011
p446
sa(dp447
g2
VThe GOP doesn't waste  an opportunity to waste an opportunity. Defunding Obamacare should be central to any deal.
p448
sg4
V12:48 PM - 18 Jul 2011
p449
sa(dp450
g2
VWe need economic growth and jobs not blue ribbon panels to study the problem.
p451
sg4
V8:16 AM - 30 Jul 2011
p452
sa(dp453
g2
V"Never quit and always hit back" -- The Art of the Comeback
p454
sg4
V8:43 AM - 29 Jul 2011
p455
sa(dp456
g2
VPeople ask me every day to pose for pictures but the camera never works the first time--they are never prepared or maybe just very nervous!
p457
sg4
V1:09 PM - 27 Jul 2011
p458
sa(dp459
g2
V"Know when to walk away from the table."   The Art of the Deal
p460
sg4
V11:25 AM - 27 Jul 2011
p461
sa(dp462
g2
VHigher Taxes kill job creation---cut wild government spending and waste.
p463
sg4
V8:18 AM - 27 Jul 2011
p464
sa(dp465
g2
VChina has so much of our debt that they can't put us in default w/o killing themselves---US needs our toughest negotiator---and fast!
p466
sg4
V6:42 AM - 27 Jul 2011
p467
sa(dp468
g2
VAmerica's debt is greater than our GDP. Time for new thinking.
p469
sg4
V12:03 PM - 26 Jul 2011
p470
sa(dp471
g2
VObama, sadly, has no business or private sector background---and it shows.
p472
sg4
V6:26 AM - 26 Jul 2011
p473
sa(dp474
g2
VWe need a balanced budget Amendment because Congress has no fiscal discipline.
p475
sg4
V8:51 AM - 25 Jul 2011
p476
sa(dp477
g2
VUnfortunately@BarackObama's continued attack on the US $ will lead to ever rising gas prices at the pump and lots of other really bad things
p478
sg4
V7:36 AM - 25 Jul 2011
p479
sa(dp480
g2
VRonald Kessler's new book "The Secrets of the FBI" is a great book that should be read by everyone.
p481
sg4
V7:14 AM - 25 Jul 2011
p482
sa(dp483
g2
V"China is our enemy--they want to destroy us" -- Redstate Interview
p484
sg4
V1:10 PM - 20 Jul 2011
p485
sa(dp486
g2
VObama is addicted to spending America into insolvency. His record proves it.
p487
sg4
V12:45 PM - 20 Jul 2011
p488
sa(dp489
g2
VSo China is ordering us to raise the Debt Limit...How low have we as a nation sunk?
p490
sg4
V6:09 AM - 19 Jul 2011
p491
sa(dp492
g2
VEvery dollar @BarackObama spends costs $1.40 with interest borrowed from China on our children and grandchildren's backs. CUT-CAP-BALANCE!
p493
sg4
V11:51 AM - 18 Jul 2011
p494
sa(dp495
g2
VTake a look at  http://bit.ly/q0lFik  and  http://bit.ly/9nxPbD  to see these beautiful hotels.
p496
sg4
V1:41 PM - 14 Jul 2011
p497
sa(dp498
g2
VUS News named the Top10 best hotels in the US--and Trump Int'l Hotel & Tower NYC and Trump Int'l Hotel & Tower Chicago are on the list!
p499
sg4
V1:33 PM - 14 Jul 2011
p500
sa(dp501
g2
V@BarackObama You have abandoned Israel and engaged the Muslim Brotherhood, and even the Arab world does not like it
p502
sg4
V12:22 PM - 14 Jul 2011
p503
sa(dp504
g2
VWhile @BarackObama tries to push gun control http://bit.ly/p27G2K  --He still has not answered for Project Gun Runner
p505
sg4
V10:41 AM - 14 Jul 2011
p506
sa(dp507
g2
VMy interview last night with Greta on the GOP going El Foldo
p508
sg4
V9:27 AM - 14 Jul 2011
p509
sa(dp510
g2
V@johnboehner Debt Ceiling- "Sometimes no deal is better than a bad deal."
p511
sg4
V6:36 AM - 14 Jul 2011
p512
sa(dp513
g2
VMore thoughts on the debt ceiling in today's #trumpvlog...
p514
sg4
V12:34 PM - 13 Jul 2011
p515
sa(dp516
g2
V@macmiller "Donald Trump the Song" gets 16M hits on YouTube. Who wouldn't be flattered?
p517
sg4
V1:08 PM - 12 Jul 2011
p518
sa(dp519
g2
V@johnboehner "Much as it pays to emphasize the positive, there are times when the only choice is confrontation."  The Art of the Deal
p520
sg4
V12:01 PM - 12 Jul 2011
p521
sa(dp522
g2
VOn our YouTube channel- the opening of the incredible Trump Ocean Club in Panama.... http://bit.ly/qGBxg6 
p523
sg4
V2:51 PM - 11 Jul 2011
p524
sa(dp525
g2
VDerek Jeter's baseball and more in today's #trumpvlog... http://bit.ly/p2EreE 
p526
sg4
V12:18 PM - 11 Jul 2011
p527
sa(dp528
g2
VHouse GOP wants to cut Medicare, Obama took $500 billion from Medicare for Obamacare. Both Wrong!
p529
sg4
V9:24 AM - 8 Jul 2011
p530
sa(dp531
g2
VObamaCare Tragedy Primed to Further Explode the Deficit  http://bit.ly/q2iYtw   And @Obama transferred $500 billion from Medicare to fund it!
p532
sg4
V9:22 AM - 8 Jul 2011
p533
sa(dp534
g2
V@johnboehner Message for House GOP  "The worst thing you can possibly do in a deal is seem desperate to make it." - The Art of the Deal.
p535
sg4
V8:14 AM - 8 Jul 2011
p536
sa(dp537
g2
VIf only @Obama was as focused on balancing the budget as he is on weakening Israel's borders then America would be on the path to solvency.
p538
sg4
V9:20 AM - 7 Jul 2011
p539
sa(dp540
g2
VTHe Art of the Deal--"The best thing you can do is deal from strength, and leverage is the biggest strength you have." CUT, CAP and BALANCE.
p541
sg4
V9:18 AM - 7 Jul 2011
p542
sa(dp543
g2
VRepublicans should not negotiate against themselves again with @BarackObama in today's debt talks--First and foremost CUT,CAP and BALANCE.
p544
sg4
V9:17 AM - 7 Jul 2011
p545
sa(dp546
g2
VCongress is back.TIME TO CUT, CAP AND BALANCE.There is no revenue problem.The Debt Limit cannot be raised until Obama spending is contained.
p547
sg4
V7:38 AM - 6 Jul 2011
p548
sa(dp549
g2
VPerhaps this is the kind of thinking we need in Washington ...
p550
sg4
V12:51 PM - 5 Jul 2011
p551
sa(dp552
g2
VTomorrow we'll be going to Panama for the opening of our new hotel. It's a fantastic building in a fantastic location. http://bit.ly/jkC0ea 
p553
sg4
V11:12 AM - 5 Jul 2011
p554
sa(dp555
g2
VEx-Presidential Pollster Pat Cadell says most voters sick of both parties and their failure.
p556
sg4
V8:43 AM - 30 Jul 2011
p557
sa(dp558
g2
VWe need economic growth and jobs not blue ribbon panels to study the problem.
p559
sg4
V8:16 AM - 30 Jul 2011
p560
sa(dp561
g2
VNo taxes in Boehner or Reid Plan----important victory for America.
p562
sg4
V1:13 PM - 29 Jul 2011
p563
sa(dp564
g2
VWatched Sean Hannity last night -- a great guy.
p565
sg4
V12:23 PM - 29 Jul 2011
p566
sa(dp567
g2
VIf Obama has to re-fight this fight next year he loses  -- "Watch the fine details in every deal" -- The Art of the Deal
p568
sg4
V12:03 PM - 29 Jul 2011
p569
sa(dp570
g2
VBlue Ribbon Commission to find and agree to future spending cuts? Bad idea.
p571
sg4
V9:56 AM - 29 Jul 2011
p572
sa(dp573
g2
V"Never quit and always hit back" -- The Art of the Comeback
p574
sg4
V8:43 AM - 29 Jul 2011
p575
sa(dp576
g2
VI just got Mike Leach's new book,  Swing Your Sword. He's a great coach, and he's written a great book. It's definitely worth reading.
p577
sg4
V8:11 AM - 29 Jul 2011
p578
sa(dp579
g2
VI appreciate the kind words of Mike Huckabee, a fine American http://bit.ly/pEBsgY
p580
sg4
V7:48 AM - 29 Jul 2011
p581
sa(dp582
g2
V@BarackObama has not released his own debt plan yet. He's totally lost, ineffective, desperate. GOP has its best chance to make a great deal
p583
sg4
V1:37 PM - 28 Jul 2011
p584
sa(dp585
g2
VMy wife Melania Trump's show was a tremendous success last night. In case you missed her, you can see her again tonight on @QVC at 7 pm ET
p586
sg4
V12:47 PM - 28 Jul 2011
p587
sa(dp588
g2
V@Johnboehner  "The worst thing you can possibly do in a deal is seem desperate to make it."  --The Art of the Deal
p589
sg4
V12:38 PM - 28 Jul 2011
p590
sa(dp591
g2
VPlease tweet me your questions to answer in my #trumpvlog.
p592
sg4
V11:26 AM - 28 Jul 2011
p593
sa(dp594
g2
V@KarlRove's @CrossroadsGPS new ad criticizes Obama for his excessive spending and debt, borrowing from China. Didn't Bush do the same thing?
p595
sg4
V10:56 AM - 28 Jul 2011
p596
sa(dp597
g2
VMy interview yesterday from Newsmax - "Obama Is  'Now Totally Lost,'  Boehner Must Not Fold"  http://bit.ly/n7Ahdk
p598
sg4
V8:36 AM - 28 Jul 2011
p599
sa(dp600
g2
VPeople ask me every day to pose for pictures but the camera never works the first time--they are never prepared or maybe just very nervous!
p601
sg4
V1:09 PM - 27 Jul 2011
p602
sa(dp603
g2
V"Know when to walk away from the table."   The Art of the Deal
p604
sg4
V11:25 AM - 27 Jul 2011
p605
sa(dp606
g2
VWatch my wife Melania Trump tonight on @QVC at 1 a.m.  So proud of her!
p607
sg4
V8:57 AM - 27 Jul 2011
p608
sa(dp609
g2
VHigher Taxes kill job creation---cut wild government spending and waste.
p610
sg4
V8:18 AM - 27 Jul 2011
p611
sa(dp612
g2
VChina has so much of our debt that they can't put us in default w/o killing themselves---US needs our toughest negotiator---and fast!
p613
sg4
V6:42 AM - 27 Jul 2011
p614
sa(dp615
g2
VObama, sadly, has no business or private sector background---and it shows.
p616
sg4
V6:26 AM - 26 Jul 2011
p617
sa(dp618
g2
VThe pressure on the debt ceiling is on @BarackObama.... http://bit.ly/qjI442  #trumpvlog
p619
sg4
V12:41 PM - 25 Jul 2011
p620
sa(dp621
g2
VThe Answer to both Social Security and Medicare is a robust growing economy---not cuts on the elderly.
p622
sg4
V11:38 AM - 25 Jul 2011
p623
sa(dp624
g2
VWe need a balanced budget Amendment because Congress has no fiscal discipline.
p625
sg4
V8:51 AM - 25 Jul 2011
p626
sa(dp627
g2
VUnfortunately@BarackObama's continued attack on the US $ will lead to ever rising gas prices at the pump and lots of other really bad things
p628
sg4
V7:36 AM - 25 Jul 2011
p629
sa(dp630
g2
VRonald Kessler's new book "The Secrets of the FBI" is a great book that should be read by everyone.
p631
sg4
V7:14 AM - 25 Jul 2011
p632
sa(dp633
g2
V"Increasing America\u2019s debt weakens us domestically and internationally." - US Senator @BarackObama, 2007
p634
sg4
V12:03 PM - 22 Jul 2011
p635
sa(dp636
g2
VMy interview on @gretawire last night  - "Our Leaders Are Leading Us Into 'Oblivion'"
p637
sg4
V9:00 AM - 22 Jul 2011
p638
sa(dp639
g2
V"The Gang of Six" - yet another unmitigated disaster. ANY DEAL NEEDS TO REPEAL OBAMACARE. T-E-A.
p640
sg4
V1:38 PM - 21 Jul 2011
p641
sa(dp642
g2
V"China is our enemy--they want to destroy us" -- Redstate Interview
p643
sg4
V1:10 PM - 20 Jul 2011
p644
sa(dp645
g2
VObama is addicted to spending America into insolvency. His record proves it.
p646
sg4
V12:45 PM - 20 Jul 2011
p647
sa(dp648
g2
VRobust Economic growth is the answer to the Medicare Problem--not cuts on the elderly.
p649
sg4
V10:55 AM - 20 Jul 2011
p650
sa(dp651
g2
VWhile @BarackObama seeks to further destroy  our credit, our economy continues to hemorrhage jobs. Such a total failure---as a President.
p652
sg4
V10:38 AM - 19 Jul 2011
p653
sa(dp654
g2
V@johnboehner  @EricCantor  "You can't con people...if you don't deliver the goods, people will eventually catch on." - The Art of the Deal
p655
sg4
V8:26 AM - 19 Jul 2011
p656
sa(dp657
g2
VSo China is ordering us to raise the Debt Limit...How low have we as a nation sunk?
p658
sg4
V6:09 AM - 19 Jul 2011
p659
sa(dp660
g2
VThe GOP doesn't waste  an opportunity to waste an opportunity. Defunding Obamacare should be central to any deal.
p661
sg4
V12:48 PM - 18 Jul 2011
p662
sa(dp663
g2
VEvery dollar @BarackObama spends costs $1.40 with interest borrowed from China on our children and grandchildren's backs. CUT-CAP-BALANCE!
p664
sg4
V11:51 AM - 18 Jul 2011
p665
sa(dp666
g2
V@BarackObama has sold guns to Mexican drug lords while his DOJ erodes our 2nd  Amendment rights.
p667
sg4
V9:21 AM - 18 Jul 2011
p668
sa(dp669
g2
V#trumpvlog The Republicans must act now, don't let @barackobama push you around.... http://bit.ly/nRaHB7 
p670
sg4
V8:37 AM - 18 Jul 2011
p671
sa(dp672
g2
VCongratulations to my daughter Ivanka and her husband Jared on the birth of  their daughter Arabella Rose yesterday.
p673
sg4
V6:53 AM - 18 Jul 2011
p674
sa(dp675
g2
V@marcorubio is right. We need to create more taxpayers, not more taxes. CUT, CAP AND BALANCE.
p676
sg4
V12:37 PM - 15 Jul 2011
p677
sa(dp678
g2
V@BarackObama You have increased discretionary spending by 25% annually and amassed over $4 trillion in debt. T-E-A
p679
sg4
V12:23 PM - 15 Jul 2011
p680
sa(dp681
g2
VWho will be the next @TheRealTeenUSA? Find out this Saturday at 8PM ET on missteenusa.com  #TeenUSA
p682
sg4
V7:17 AM - 15 Jul 2011
p683
sa(dp684
g2
VWhat is better advice- "The Art of the Deal" or "Rules for Radicals"? I know which one @BarackObama prefers.
p685
sg4
V2:12 PM - 14 Jul 2011
p686
sa(dp687
g2
VCUT, CAP AND BALANCE. TAXED ENOUGH ALREADY!
p688
sg4
V1:44 PM - 14 Jul 2011
p689
sa(dp690
g2
VTake a look at  http://bit.ly/q0lFik  and  http://bit.ly/9nxPbD  to see these beautiful hotels.
p691
sg4
V1:41 PM - 14 Jul 2011
p692
sa(dp693
g2
VUS News named the Top10 best hotels in the US--and Trump Int'l Hotel & Tower NYC and Trump Int'l Hotel & Tower Chicago are on the list!
p694
sg4
V1:33 PM - 14 Jul 2011
p695
sa(dp696
g2
V@BarackObama You have abandoned Israel and engaged the Muslim Brotherhood, and even the Arab world does not like it
p697
sg4
V12:22 PM - 14 Jul 2011
p698
sa(dp699
g2
VWhile @BarackObama tries to push gun control http://bit.ly/p27G2K  --He still has not answered for Project Gun Runner
p700
sg4
V10:41 AM - 14 Jul 2011
p701
sa(dp702
g2
VMy interview last night with Greta on the GOP going El Foldo
p703
sg4
V9:27 AM - 14 Jul 2011
p704
sa(dp705
g2
V@johnboehner Debt Ceiling- "Sometimes no deal is better than a bad deal."
p706
sg4
V6:36 AM - 14 Jul 2011
p707
sa(dp708
g2
VMore thoughts on the debt ceiling in today's #trumpvlog...
p709
sg4
V12:34 PM - 13 Jul 2011
p710
sa(dp711
g2
V@macmiller "Donald Trump the Song" gets 16M hits on YouTube. Who wouldn't be flattered?
p712
sg4
V1:08 PM - 12 Jul 2011
p713
sa(dp714
g2
V@johnboehner "Much as it pays to emphasize the positive, there are times when the only choice is confrontation."  The Art of the Deal
p715
sg4
V12:01 PM - 12 Jul 2011
p716
sa(dp717
g2
V@johnboehner Mr. Speaker, bring the Balanced Budget Amendment to the floor for a vote! Let's get the ball rolling.
p718
sg4
V6:18 AM - 12 Jul 2011
p719
sa(dp720
g2
VOn our YouTube channel- the opening of the incredible Trump Ocean Club in Panama.... http://bit.ly/qGBxg6 
p721
sg4
V2:51 PM - 11 Jul 2011
p722
sa(dp723
g2
VDerek Jeter's baseball and more in today's #trumpvlog... http://bit.ly/p2EreE 
p724
sg4
V12:18 PM - 11 Jul 2011
p725
sa(dp726
g2
VHouse GOP wants to cut Medicare, Obama took $500 billion from Medicare for Obamacare. Both Wrong!
p727
sg4
V9:24 AM - 8 Jul 2011
p728
sa(dp729
g2
VObamaCare Tragedy Primed to Further Explode the Deficit  http://bit.ly/q2iYtw   And @Obama transferred $500 billion from Medicare to fund it!
p730
sg4
V9:22 AM - 8 Jul 2011
p731
sa(dp732
g2
V@Obama - Iranian weapons killing Americans in Iraq? What are u doing about this?  http://bit.ly/olNqW5 
p733
sg4
V8:22 AM - 8 Jul 2011
p734
sa(dp735
g2
V@johnboehner Message for House GOP  "The worst thing you can possibly do in a deal is seem desperate to make it." - The Art of the Deal.
p736
sg4
V8:14 AM - 8 Jul 2011
p737
sa(dp738
g2
VIf only @Obama was as focused on balancing the budget as he is on weakening Israel's borders then America would be on the path to solvency.
p739
sg4
V9:20 AM - 7 Jul 2011
p740
sa(dp741
g2
VTHe Art of the Deal--"The best thing you can do is deal from strength, and leverage is the biggest strength you have." CUT, CAP and BALANCE.
p742
sg4
V9:18 AM - 7 Jul 2011
p743
sa(dp744
g2
VRepublicans should not negotiate against themselves again with @BarackObama in today's debt talks--First and foremost CUT,CAP and BALANCE.
p745
sg4
V9:17 AM - 7 Jul 2011
p746
sa(dp747
g2
VCongress is back.TIME TO CUT, CAP AND BALANCE.There is no revenue problem.The Debt Limit cannot be raised until Obama spending is contained.
p748
sg4
V7:38 AM - 6 Jul 2011
p749
sa(dp750
g2
VPerhaps this is the kind of thinking we need in Washington ...
p751
sg4
V12:51 PM - 5 Jul 2011
p752
sa(dp753
g2
VTomorrow we'll be going to Panama for the opening of our new hotel. It's a fantastic building in a fantastic location. http://bit.ly/jkC0ea 
p754
sg4
V11:12 AM - 5 Jul 2011
p755
sa(dp756
g2
VLibyan Rebels should have given us 50% of the oil in return for our military support---we don't even ask!
p757
sg4
V11:58 AM - 26 Aug 2011
p758
sa(dp759
g2
VWhy did @BarackObama and his family travel separately to Martha's Vineyard? They love to extravagantly spend on the taxpayers' dime.
p760
sg4
V7:07 AM - 26 Aug 2011
p761
sa(dp762
g2
VAmazing--Obama speaks, market goes  DOWN---Trump tells CNBC he's buying stock---market goes UP --- should not be that way!
p763
sg4
V10:42 AM - 16 Aug 2011
p764
sa(dp765
g2
VThere usually is an easy solution to every problem. For instance, a lot of our country's problems can be solved in next year's election.
p766
sg4
V12:07 PM - 24 Aug 2011
p767
sa(dp768
g2
VIf the UN unilaterally grants the Palestinians statehood, then the US should cut off all its funding. Actions have consequences.
p769
sg4
V9:03 AM - 30 Aug 2011
p770
sa(dp771
g2
VLibya is being taken over by Islamic radicals---with @BarackObama's open support.
p772
sg4
V9:07 AM - 31 Aug 2011
p773
sa(dp774
g2
VObamaCare must be fully repealed or it will destroy America's small businesses.
p775
sg4
V10:31 AM - 30 Aug 2011
p776
sa(dp777
g2
VIf the Palestinians want statehood then why are they run by the terrorist group Hamas?
p778
sg4
V3:35 PM - 29 Aug 2011
p779
sa(dp780
g2
VCrude is at $85 right now \u2013 isn\u2019t even worth half that. OPEC is ripping us off.
p781
sg4
V11:39 AM - 29 Aug 2011
p782
sa(dp783
g2
VIran admits to aiding the Libyan "Rebels" and Ahmadinejad received a letter of thanks - when will Washington learn? http://bit.ly/paSPy1 
p784
sg4
V8:39 AM - 29 Aug 2011
p785
sa(dp786
g2
VMore and more Americans seem fed up with both Parties----I agree.
p787
sg4
V11:03 AM - 26 Aug 2011
p788
sa(dp789
g2
VThere is no substitute for private sector experience.
p790
sg4
V9:05 AM - 26 Aug 2011
p791
sa(dp792
g2
VAmerica needs a President who can negotiate better deals for the American People.
p793
sg4
V11:49 AM - 25 Aug 2011
p794
sa(dp795
g2
VWe have spent over $1 Billion on the  Libya operation. What are we getting back?
p796
sg4
V11:02 AM - 24 Aug 2011
p797
sa(dp798
g2
VAs bad as Qaddafi was---what comes next in Libya will be worse---just watch.
p799
sg4
V12:24 PM - 23 Aug 2011
p800
sa(dp801
g2
VLet's not start celebrating over Libya until we see who takes over.
p802
sg4
V10:52 AM - 23 Aug 2011
p803
sa(dp804
g2
VWe  spent over a billion on Libya and lead the way---why is Europe getting the oil?
p805
sg4
V8:57 AM - 23 Aug 2011
p806
sa(dp807
g2
VWe don't need another stimulus. The first one was a complete failure. Why repeat the same mistake?
p808
sg4
V1:33 PM - 22 Aug 2011
p809
sa(dp810
g2
VMany people have been asking to see my plane, The Apprentice's @AmandaTMiller will give you a tour...
p811
sg4
V11:00 AM - 18 Aug 2011
p812
sa(dp813
g2
V@MacMiller will enjoy today's #trumpvlog... http://bit.ly/pcnVLY 
p814
sg4
V7:28 AM - 18 Aug 2011
p815
sa(dp816
g2
VEconomic growth can save Social Security, Medicare and America.
p817
sg4
V11:02 AM - 13 Aug 2011
p818
sa(dp819
g2
VMike Huckebee, a great guy, said the President should appoint me Treasury Secretary. China and OPEC would not be happy.
p820
sg4
V10:20 AM - 13 Aug 2011
p821
sa(dp822
g2
VRon Paul is right that we are wasting trillions of dollars in Iraq and Afghanistan.
p823
sg4
V6:28 AM - 13 Aug 2011
p824
sa(dp825
g2
VObama has no understanding of how to create jobs or opportunity. He believes in Government.
p826
sg4
V11:09 AM - 12 Aug 2011
p827
sa(dp828
g2
VIt's easy to see why Americans are sick of career politicians and both parties.
p829
sg4
V8:36 AM - 12 Aug 2011
p830
sa(dp831
g2
VThe Fed continues to flood the market with US dollars. Wrong move.
p832
sg4
V12:26 PM - 10 Aug 2011
p833
sa(dp834
g2
VOil is starting to rise again despite the horrible times. OPEC continues to rip us off. Not worth $30. New leadership needed.
p835
sg4
V11:25 AM - 10 Aug 2011
p836
sa(dp837
g2
VCongress should get back to Washington, but @BarackObama doesn't want to interrupt his vacation in Martha's Vineyard.
p838
sg4
V10:02 AM - 10 Aug 2011
p839
sa(dp840
g2
VRepublicans and Democrats should get back to work immediately to work on resolving downgrade. This is not a go\u2026 (cont) http://deck.ly/~1UpEp
p841
sg4
V12:10 PM - 9 Aug 2011
p842
sa(dp843
g2
VThe S&P are losers. They did this for personal publicity in order to straighten out their terrible reputatio\u2026 (cont) http://deck.ly/~PgL6v
p844
sg4
V10:40 AM - 9 Aug 2011
p845
sa(dp846
g2
VThe S&P downgrade is a direct result of @BarackObama's increased reckless budget spending and Obama Care. He owns this.
p847
sg4
V8:12 AM - 8 Aug 2011
p848
sa(dp849
g2
VThe new President of OPEC is Mahmoud Ahmadinejad\u2019s confidant Rostam Ghasemi, a commander of the Revolutionar\u2026 (cont) http://deck.ly/~unUiL
p850
sg4
V11:02 AM - 5 Aug 2011
p851
sa(dp852
g2
VObama Care is already having a devastating impact on our economy.
p853
sg4
V8:57 AM - 5 Aug 2011
p854
sa(dp855
g2
VIn today's #trumpvlog I answer your questions about what you should be doing in this uncertain economy...
p856
sg4
V8:24 AM - 5 Aug 2011
p857
sa(dp858
g2
VChina demanded that we raise our debt ceiling and then their rating agency downgraded us. Our leaders are hope\u2026 (cont) http://deck.ly/~x0TDx
p859
sg4
V1:09 PM - 4 Aug 2011
p860
sa(dp861
g2
VAmerica's debt officially became 100% of our GDP on @BarackObama's 50th birthday---coincidence?
p862
sg4
V10:44 AM - 4 Aug 2011
p863
sa(dp864
g2
VI believe America can be great only with proper leadership.
p865
sg4
V8:52 AM - 3 Aug 2011
p866
sa(dp867
g2
VWake Up America -- China is eating our lunch.
p868
sg4
V7:36 AM - 3 Aug 2011
p869
sa(dp870
g2
VAll those politicians in Washington and not one good negotiator.
p871
sg4
V6:33 AM - 3 Aug 2011
p872
sa(dp873
g2
VWhy I would not have approved the deal... http://bit.ly/r56TPc  #trumpvlog
p874
sg4
V2:03 PM - 2 Aug 2011
p875
sa(dp876
g2
VNo taxes the only good thing about DC Debt Deal.
p877
sg4
V1:12 PM - 2 Aug 2011
p878
sa(dp879
g2
Vhttp://bit.ly/pwgGsQ \u000a\u000ahttp://bit.ly/pwgGsQ \u000a\u000a\u000a  My  interview yesterday on CNBC's Squawk Box:  Debt Deal a\u2026 (cont) http://deck.ly/~HZMKL
p880
sg4
V12:56 PM - 2 Aug 2011
p881
sa(dp882
g2
VThe more you learn about the debt deal, the worse it gets.
p883
sg4
V12:24 PM - 2 Aug 2011
p884
sa(dp885
g2
VYour questions about my desk answered in today's #trumpvlog...
p886
sg4
V11:52 AM - 2 Aug 2011
p887
sa(dp888
g2
VRepublicans and Democrats have both created our economic problems.
p889
sg4
V11:07 AM - 2 Aug 2011
p890
sa(dp891
g2
VWhy should we have any defense cuts in any deal? America must remain strong.
p892
sg4
V9:58 AM - 1 Aug 2011
p893
sa(dp894
g2
VI'll be  on Greta Van Susteren's show tonight at 10 PM on FoxNews. Tune in.
p895
sg4
V12:48 PM - 31 Aug 2011
p896
sa(dp897
g2
VWith gas prices rising and the economy failing,  @BarackObama seeks to have his EPA raise energy prices by $109B  http://bit.ly/oEldoG 
p898
sg4
V11:01 AM - 31 Aug 2011
p899
sa(dp900
g2
VLibya is being taken over by Islamic radicals---with @BarackObama's open support.
p901
sg4
V9:07 AM - 31 Aug 2011
p902
sa(dp903
g2
VMy thoughts on Dick Cheney and his new book\u2026 http://bit.ly/mTUnaU  #trumpvlog
p904
sg4
V8:14 AM - 31 Aug 2011
p905
sa(dp906
g2
VChina's business interests reach far and wide---even domestically within our borders. We need to reassess our relationship.
p907
sg4
V12:54 PM - 30 Aug 2011
p908
sa(dp909
g2
VThe new Libyan Government should turn over the Lockerbie bomber---now.
p910
sg4
V12:00 PM - 30 Aug 2011
p911
sa(dp912
g2
VObamaCare must be fully repealed or it will destroy America's small businesses.
p913
sg4
V10:31 AM - 30 Aug 2011
p914
sa(dp915
g2
VIf the UN unilaterally grants the Palestinians statehood, then the US should cut off all its funding. Actions have consequences.
p916
sg4
V9:03 AM - 30 Aug 2011
p917
sa(dp918
g2
VIf the Palestinians want statehood then why are they run by the terrorist group Hamas?
p919
sg4
V3:35 PM - 29 Aug 2011
p920
sa(dp921
g2
VCrude is at $85 right now \u2013 isn\u2019t even worth half that. OPEC is ripping us off.
p922
sg4
V11:39 AM - 29 Aug 2011
p923
sa(dp924
g2
V@BarackObama MUST release a budget before @johnboehner begins negotiations on a continuing appropriations resolution.
p925
sg4
V9:06 AM - 29 Aug 2011
p926
sa(dp927
g2
VIran admits to aiding the Libyan "Rebels" and Ahmadinejad received a letter of thanks - when will Washington learn? http://bit.ly/paSPy1 
p928
sg4
V8:39 AM - 29 Aug 2011
p929
sa(dp930
g2
VLibyan Rebels should have given us 50% of the oil in return for our military support---we don't even ask!
p931
sg4
V11:58 AM - 26 Aug 2011
p932
sa(dp933
g2
VHurricane Irene and Libya in today's #trumpvlog.... http://bit.ly/opfTwA 
p934
sg4
V11:45 AM - 26 Aug 2011
p935
sa(dp936
g2
VMore and more Americans seem fed up with both Parties----I agree.
p937
sg4
V11:03 AM - 26 Aug 2011
p938
sa(dp939
g2
VThere is no substitute for private sector experience.
p940
sg4
V9:05 AM - 26 Aug 2011
p941
sa(dp942
g2
VWhy did @BarackObama and his family travel separately to Martha's Vineyard? They love to extravagantly spend on the taxpayers' dime.
p943
sg4
V7:07 AM - 26 Aug 2011
p944
sa(dp945
g2
VI'm very proud of the work my son @EricTrump has been doing with the @EricTrumpFDN, take a look... http://bit.ly/oUhkE2 
p946
sg4
V1:02 PM - 25 Aug 2011
p947
sa(dp948
g2
VAmerica needs a President who can negotiate better deals for the American People.
p949
sg4
V11:49 AM - 25 Aug 2011
p950
sa(dp951
g2
VChina's corporate espionage is a continued threat to the American economy. With the right leadership, it can be stopped.
p952
sg4
V10:16 AM - 25 Aug 2011
p953
sa(dp954
g2
VAs bad as Qaddafi was---what comes next in Libya will be worse---just watch.
p955
sg4
V12:24 PM - 23 Aug 2011
p956
sa(dp957
g2
VLet's not start celebrating over Libya until we see who takes over.
p958
sg4
V10:52 AM - 23 Aug 2011
p959
sa(dp960
g2
VWe  spent over a billion on Libya and lead the way---why is Europe getting the oil?
p961
sg4
V8:57 AM - 23 Aug 2011
p962
sa(dp963
g2
V@RonPaul has some serious ideas which deserve serious consideration. Wrong for media to ignore him.
p964
sg4
V7:33 AM - 23 Aug 2011
p965
sa(dp966
g2
VWe don't need another stimulus. The first one was a complete failure. Why repeat the same mistake?
p967
sg4
V1:33 PM - 22 Aug 2011
p968
sa(dp969
g2
VWhile @BarackObama continues to defend ObamaCare in the courts, he is also granting companies waivers. Eve\u2026 (cont) http://deck.ly/~42zLd 
p970
sg4
V10:54 AM - 22 Aug 2011
p971
sa(dp972
g2
VIsrael is being barraged by rockets from Gaza recently. They must respond accordingly in defense of their citizens.
p973
sg4
V8:53 AM - 22 Aug 2011
p974
sa(dp975
g2
V@BarackObama is sure a master delegator. He has sent @Joe_Biden to China. The Chinese are laughing at us. We MUST do better.
p976
sg4
V12:51 PM - 19 Aug 2011
p977
sa(dp978
g2
V@BarackObama\u2019s new job plan will certainly do the following \u2013 1. Not create any jobs. 2. Borrow more money from China. 
p979
sg4
V11:42 AM - 19 Aug 2011
p980
sa(dp981
g2
VYou can listen to my interview today with Jay Sekulow Live and the @JordanSekulow show here http://aclj.org/   @12PM EST.
p982
sg4
V8:04 AM - 19 Aug 2011
p983
sa(dp984
g2
VInsurgents in Iraq show they can still mount horrifying attacks---US wastes  trillions.
p985
sg4
V12:36 PM - 18 Aug 2011
p986
sa(dp987
g2
VMany people have been asking to see my plane, The Apprentice's @AmandaTMiller will give you a tour...
p988
sg4
V11:00 AM - 18 Aug 2011
p989
sa(dp990
g2
VKarl Rove --lost GOP both Houses of Congress and the White House--gave us Obama.
p991
sg4
V10:01 AM - 18 Aug 2011
p992
sa(dp993
g2
V@MacMiller will enjoy today's #trumpvlog... http://bit.ly/pcnVLY 
p994
sg4
V7:28 AM - 18 Aug 2011
p995
sa(dp996
g2
VRon Paul is right when he says we are wasting lives and money in Iraq and Afghanistan.
p997
sg4
V1:04 PM - 17 Aug 2011
p998
sa(dp999
g2
VMy interview with @gretawire on Fox News for those who missed it - 'Obama's Constantly on Vacation'
p1000
sg4
V10:35 AM - 17 Aug 2011
p1001
sa(dp1002
g2
V@BarackObama has a record low 39% Gallup approval rating. Why so high?
p1003
sg4
V8:40 AM - 17 Aug 2011
p1004
sa(dp1005
g2
VMy interview this morning on Good Morning America  with George Stephanopoulos  http://abcn.ws/r8kI4t 
p1006
sg4
V7:34 AM - 17 Aug 2011
p1007
sa(dp1008
g2
VAmazing--Obama speaks, market goes  DOWN---Trump tells CNBC he's buying stock---market goes UP --- should not be that way!
p1009
sg4
V10:42 AM - 16 Aug 2011
p1010
sa(dp1011
g2
VChina owes us money.... http://bit.ly/mWTiBH  #trumpvlog
p1012
sg4
V9:06 AM - 16 Aug 2011
p1013
sa(dp1014
g2
VA good example of how our country wastes money... http://bit.ly/qPQhAn  #trumpvlog
p1015
sg4
V2:33 PM - 15 Aug 2011
p1016
sa(dp1017
g2
VI was interviewed by Greta Van Susteren today here at Trump Tower.  Tune in tonight on Fox News at 10 p.m.\u2026 (cont) http://deck.ly/~mhDGw 
p1018
sg4
V1:19 PM - 15 Aug 2011
p1019
sa(dp1020
g2
VChina is a threat to America. They are not our friend.
p1021
sg4
V12:53 PM - 15 Aug 2011
p1022
sa(dp1023
g2
VUnemployment is plaguing both Black and Hispanic youths. Very troubling.
p1024
sg4
V11:41 AM - 15 Aug 2011
p1025
sa(dp1026
g2
VMy thoughts on the Republican Party in today's #trumpvlog... http://bit.ly/rdP9bu 
p1027
sg4
V11:22 AM - 15 Aug 2011
p1028
sa(dp1029
g2
V@BarackObama played golf yesterday. Now he  heads to a 10 day vacation in Martha's Vineyard.  Nice work ethic.
p1030
sg4
V10:36 AM - 15 Aug 2011
p1031
sa(dp1032
g2
VReporters say it's the Trump Bump---I tell CNBC I am buying stocks--- and the market goes up.
p1033
sg4
V8:49 AM - 15 Aug 2011
p1034
sa(dp1035
g2
VEconomic growth can save Social Security, Medicare and America.
p1036
sg4
V11:02 AM - 13 Aug 2011
p1037
sa(dp1038
g2
VMike Huckebee, a great guy, said the President should appoint me Treasury Secretary. China and OPEC would not be happy.
p1039
sg4
V10:20 AM - 13 Aug 2011
p1040
sa(dp1041
g2
VRon Paul is right that we are wasting trillions of dollars in Iraq and Afghanistan.
p1042
sg4
V6:28 AM - 13 Aug 2011
p1043
sa(dp1044
g2
VObama has no understanding of how to create jobs or opportunity. He believes in Government.
p1045
sg4
V11:09 AM - 12 Aug 2011
p1046
sa(dp1047
g2
VIt's easy to see why Americans are sick of career politicians and both parties.
p1048
sg4
V8:36 AM - 12 Aug 2011
p1049
sa(dp1050
g2
VHow will Mitt Romney defend his  record on jobs and Romneycare in tonight's debate?
p1051
sg4
V2:41 PM - 11 Aug 2011
p1052
sa(dp1053
g2
VLooking forward to the GOP  debate and the outcome of the Ames straw poll. We must get a real leader.
p1054
sg4
V11:26 AM - 11 Aug 2011
p1055
sa(dp1056
g2
VI was on CNBC this morning talking about the market and America's financial future  http://bit.ly/rsBqmE
p1057
sg4
V9:02 AM - 11 Aug 2011
p1058
sa(dp1059
g2
VMy interview from yesterday with #Apprentice Andy on @AmericaNowRadio http://bit.ly/qsrhtS 
p1060
sg4
V5:50 PM - 10 Aug 2011
p1061
sa(dp1062
g2
VThe Fed continues to flood the market with US dollars. Wrong move.
p1063
sg4
V12:26 PM - 10 Aug 2011
p1064
sa(dp1065
g2
VOil is starting to rise again despite the horrible times. OPEC continues to rip us off. Not worth $30. New leadership needed.
p1066
sg4
V11:25 AM - 10 Aug 2011
p1067
sa(dp1068
g2
VCongress should get back to Washington, but @BarackObama doesn't want to interrupt his vacation in Martha's Vineyard.
p1069
sg4
V10:02 AM - 10 Aug 2011
p1070
sa(dp1071
g2
V@BarackObama took another swipe at the State of Israel for building in their capital Jerusalem on a Jewish hol\u2026 (cont) http://deck.ly/~7QsGg
p1072
sg4
V8:19 AM - 10 Aug 2011
p1073
sa(dp1074
g2
Vhttp://goo.gl/AMNEE Countdown to @AmericaNowRadio as my former\u000a#Apprentice Andy and I talk about politics an\u2026 (cont) http://deck.ly/~9Q2fk
p1075
sg4
V12:33 PM - 9 Aug 2011
p1076
sa(dp1077
g2
VRepublicans and Democrats should get back to work immediately to work on resolving downgrade. This is not a go\u2026 (cont) http://deck.ly/~1UpEp
p1078
sg4
V12:10 PM - 9 Aug 2011
p1079
sa(dp1080
g2
VThe S&P are losers. They did this for personal publicity in order to straighten out their terrible reputatio\u2026 (cont) http://deck.ly/~PgL6v
p1081
sg4
V10:40 AM - 9 Aug 2011
p1082
sa(dp1083
g2
VMy interview yesterday on the S&P downgrade with Wolf Blitzer on CNN  http://bit.ly/nXfqVo
p1084
sg4
V9:02 AM - 9 Aug 2011
p1085
sa(dp1086
g2
VMy interview with Greta last night on Fox News -- "Nation Has Become "All Talk, No Action' "  http://bit.ly/mQo62O
p1087
sg4
V6:50 AM - 9 Aug 2011
p1088
sa(dp1089
g2
VHe's hired! Listen to my #Apprentice Andy launch\u000ahis radio show @AmericaNowRadio with me tomorrow 6PM ET
p1090
sg4
V1:04 PM - 8 Aug 2011
p1091
sa(dp1092
g2
VThe S&P downgrade is a direct result of @BarackObama's increased reckless budget spending and Obama Care. He owns this.
p1093
sg4
V8:12 AM - 8 Aug 2011
p1094
sa(dp1095
g2
VThe new President of OPEC is Mahmoud Ahmadinejad\u2019s confidant Rostam Ghasemi, a commander of the Revolutionar\u2026 (cont) http://deck.ly/~unUiL
p1096
sg4
V11:02 AM - 5 Aug 2011
p1097
sa(dp1098
g2
VObama Care is already having a devastating impact on our economy.
p1099
sg4
V8:57 AM - 5 Aug 2011
p1100
sa(dp1101
g2
VIn today's #trumpvlog I answer your questions about what you should be doing in this uncertain economy...
p1102
sg4
V8:24 AM - 5 Aug 2011
p1103
sa(dp1104
g2
VChina demanded that we raise our debt ceiling and then their rating agency downgraded us. Our leaders are hope\u2026 (cont) http://deck.ly/~x0TDx
p1105
sg4
V1:09 PM - 4 Aug 2011
p1106
sa(dp1107
g2
VAmerica's debt officially became 100% of our GDP on @BarackObama's 50th birthday---coincidence?
p1108
sg4
V10:44 AM - 4 Aug 2011
p1109
sa(dp1110
g2
VMy interview last night with Greta on Fox News    http://bit.ly/n7LOrz
p1111
sg4
V7:47 AM - 4 Aug 2011
p1112
sa(dp1113
g2
VThanks to Giovanni's Coal Fire Pizza of Florida for donating enough pizza to feed 750 Police Athletic League youngsters in NY this Friday.
p1114
sg4
V6:36 AM - 4 Aug 2011
p1115
sa(dp1116
g2
VWatch my interview with Greta Van Susteren on her show, On the Record, tonight on Fox News in the 10 p.m. hour.
p1117
sg4
V2:34 PM - 3 Aug 2011
p1118
sa(dp1119
g2
VToday's #trumpvlog answers your tweets about my thoughts on the Republican candidates... http://bit.ly/pyrgoL 
p1120
sg4
V12:51 PM - 3 Aug 2011
p1121
sa(dp1122
g2
VMorning Joe Panel is stealing many of  my statements and ideas to better America without giving credit -- the story of my life!
p1123
sg4
V12:07 PM - 3 Aug 2011
p1124
sa(dp1125
g2
VRepublicans gave Obama a free pass to the White House -- they just don't get it.
p1126
sg4
V10:45 AM - 3 Aug 2011
p1127
sa(dp1128
g2
VI believe America can be great only with proper leadership.
p1129
sg4
V8:52 AM - 3 Aug 2011
p1130
sa(dp1131
g2
VWake Up America -- China is eating our lunch.
p1132
sg4
V7:36 AM - 3 Aug 2011
p1133
sa(dp1134
g2
VAll those politicians in Washington and not one good negotiator.
p1135
sg4
V6:33 AM - 3 Aug 2011
p1136
sa(dp1137
g2
VWhy I would not have approved the deal... http://bit.ly/r56TPc  #trumpvlog
p1138
sg4
V2:03 PM - 2 Aug 2011
p1139
sa(dp1140
g2
VNo taxes the only good thing about DC Debt Deal.
p1141
sg4
V1:12 PM - 2 Aug 2011
p1142
sa(dp1143
g2
Vhttp://bit.ly/pwgGsQ \u000a\u000ahttp://bit.ly/pwgGsQ \u000a\u000a\u000a  My  interview yesterday on CNBC's Squawk Box:  Debt Deal a\u2026 (cont) http://deck.ly/~HZMKL
p1144
sg4
V12:56 PM - 2 Aug 2011
p1145
sa(dp1146
g2
VThe more you learn about the debt deal, the worse it gets.
p1147
sg4
V12:24 PM - 2 Aug 2011
p1148
sa(dp1149
g2
VYour questions about my desk answered in today's #trumpvlog... http://bit.ly/pl9wDP 
p1150
sg4
V11:52 AM - 2 Aug 2011
p1151
sa(dp1152
g2
VRepublicans and Democrats have both created our economic problems.
p1153
sg4
V11:07 AM - 2 Aug 2011
p1154
sa(dp1155
g2
VWhy should we have any defense cuts in any deal? America must remain strong.
p1156
sg4
V9:58 AM - 1 Aug 2011
p1157
sa(dp1158
g2
VIt seems @BarackObama had our tax dollars buy guns for Mexican drug lords that were used to kill Americans. We need answers now.
p1159
sg4
V12:32 PM - 27 Sep 2011
p1160
sa(dp1161
g2
VGovernment waste, fraud and abuse should be immediately addressed. This will help solve our deficit crisis both short and long term.
p1162
sg4
V8:25 AM - 22 Sep 2011
p1163
sa(dp1164
g2
VThe Iranians have just threatened to send warships to our coasts. They laugh at us. We can't allow them to develop nuclear weapons.
p1165
sg4
V12:51 PM - 29 Sep 2011
p1166
sa(dp1167
g2
VChina is stealing our jobs. We need to demand China stop manipulating its currency and end its rampant corporate espionage.
p1168
sg4
V11:28 AM - 28 Sep 2011
p1169
sa(dp1170
g2
VObamaCare must be completely repealed. A recent report from UBS shows that it is the number one reason employers are not hiring.
p1171
sg4
V10:43 AM - 28 Sep 2011
p1172
sa(dp1173
g2
VThe unemployment numbers are tragic. We are letting the world take our jobs.  It has to stop!
p1174
sg4
V12:21 PM - 30 Sep 2011
p1175
sa(dp1176
g2
VHow many  more billions of dollars will @BarackObama continue to waste in these solar companies?
p1177
sg4
V10:27 AM - 30 Sep 2011
p1178
sa(dp1179
g2
VEveryone should boycott Italy if Amanda Knox is  not freed---she is totally innocent.
p1180
sg4
V9:12 AM - 30 Sep 2011
p1181
sa(dp1182
g2
VA simplified tax code would spur economic growth and help create jobs. Unfortunately,  Washington is incapable of simplifying anything.
p1183
sg4
V1:27 PM - 29 Sep 2011
p1184
sa(dp1185
g2
VThe Fed's reckless policies of low interest and flooding the market with dollars needs to be stopped or we will face record inflation.
p1186
sg4
V12:24 PM - 29 Sep 2011
p1187
sa(dp1188
g2
VChina does not negotiate from a position of strength, we simply negotiate against ourselves. We have all the advantages but don't execute.
p1189
sg4
V11:50 AM - 29 Sep 2011
p1190
sa(dp1191
g2
VWhen will @BarackObama present an actual budget? Enough with the games.
p1192
sg4
V12:08 PM - 28 Sep 2011
p1193
sa(dp1194
g2
VHappy New Year to all my Jewish friends.
p1195
sg4
V8:35 AM - 28 Sep 2011
p1196
sa(dp1197
g2
VObamaCare is a major threat to America's entrepreneurial spirit and competitiveness. Small businesses will b\u2026 (cont) http://deck.ly/~GWq6V 
p1198
sg4
V8:59 AM - 26 Sep 2011
p1199
sa(dp1200
g2
VOur country's debt crisis cannot be solved by tax increases. We must cut government spending.
p1201
sg4
V7:34 AM - 26 Sep 2011
p1202
sa(dp1203
g2
VOPEC is ripping us off on oil. We are ripping ourselves off by investing in unproven green energy. #Solyndra
p1204
sg4
V10:56 AM - 23 Sep 2011
p1205
sa(dp1206
g2
VOur deficit spending is China\u2019s gain. @BarackObama is bankrupting our country.
p1207
sg4
V8:17 AM - 23 Sep 2011
p1208
sa(dp1209
g2
VAustralia is a beautiful country with terrific people who love America.
p1210
sg4
V11:27 AM - 21 Sep 2011
p1211
sa(dp1212
g2
VChina is neither an ally or a friend--they want to beat us and own our country.
p1213
sg4
V11:12 AM - 21 Sep 2011
p1214
sa(dp1215
g2
VOur next President must stop China's Rip-off of America.
p1216
sg4
V8:02 AM - 21 Sep 2011
p1217
sa(dp1218
g2
VIt  seems there is never a problem for which @BarackObama cannot find a reason for another speech and another tax.
p1219
sg4
V12:21 PM - 19 Sep 2011
p1220
sa(dp1221
g2
VHow will raising taxes create jobs? Washington is all out of answers. New leadership is needed.
p1222
sg4
V10:24 AM - 19 Sep 2011
p1223
sa(dp1224
g2
VIf China had a tenth of the natural resources we do then they would already be energy independent. Instead we continue to buy oil from OPEC.
p1225
sg4
V2:20 PM - 16 Sep 2011
p1226
sa(dp1227
g2
V"It  doesn't cost any money to think bigger."  -- The Art of the Deal
p1228
sg4
V1:20 PM - 16 Sep 2011
p1229
sa(dp1230
g2
VI applaud @netanyahu for announcing that he will show up at the UN to defend @Israel. A true US friend and great leader.
p1231
sg4
V8:33 AM - 16 Sep 2011
p1232
sa(dp1233
g2
VWe can create jobs in the American economy by protecting our own manufacturing sector.
p1234
sg4
V11:41 AM - 15 Sep 2011
p1235
sa(dp1236
g2
VThe Solyndra Scandal--@BarackObama's $500Million photo op. He loves wasting our money.
p1237
sg4
V8:43 AM - 15 Sep 2011
p1238
sa(dp1239
g2
VHad dinner with @RickPerry last night---great guy, straight shooter, impressive record.
p1240
sg4
V6:52 AM - 15 Sep 2011
p1241
sa(dp1242
g2
VWe should immediately close all tax loopholes that favor foreign investments and taking our jobs overseas t\u2026 (cont) http://deck.ly/~g6wcI 
p1243
sg4
V10:36 AM - 13 Sep 2011
p1244
sa(dp1245
g2
VHow can the economy ever recover when @BarackObama keeps threatening the private sector with more taxes. This is no way to spur growth.
p1246
sg4
V6:40 AM - 13 Sep 2011
p1247
sa(dp1248
g2
VFriends in NY-9, let @BarackObama know that you don't approve of his mistreatment of @Israel.  Vote for @Bobturner9th tomorrow!
p1249
sg4
V6:23 PM - 12 Sep 2011
p1250
sa(dp1251
g2
VThe American economy would grow if Washington didn\u2019t keep threatening higher taxes and more regulations. Government is not the solution.
p1252
sg4
V3:56 PM - 12 Sep 2011
p1253
sa(dp1254
g2
VThe World Economic Forum now ranks the US the fifth most competitive economy in the world. We have fallen from first under @BarackObama.
p1255
sg4
V2:34 PM - 12 Sep 2011
p1256
sa(dp1257
g2
VIran\u2019s nuclear program must be stopped \u2013 by any and all means necessary.
p1258
sg4
V2:17 PM - 12 Sep 2011
p1259
sa(dp1260
g2
VWant jobs? Slash corporate tax rate.  Tax incentives for companies that create jobs in US.  America will boom.
p1261
sg4
V12:20 PM - 9 Sep 2011
p1262
sa(dp1263
g2
VWhy is the UN planning to attack @Israel's sovereignty and ignore Iran's nuclear program? The US should look at future funding.
p1264
sg4
V11:46 AM - 8 Sep 2011
p1265
sa(dp1266
g2
VChina is happy to learn that @BarackObama plans to borrow another $300 Billion. @BarackObama is their favorite client.
p1267
sg4
V10:23 AM - 8 Sep 2011
p1268
sa(dp1269
g2
VIf only speeches could create jobs then @BarackObama wouldn't have such a dismal economic record.
p1270
sg4
V9:01 AM - 8 Sep 2011
p1271
sa(dp1272
g2
VAmerica needs a tough negotiator---not a community organizer.
p1273
sg4
V11:45 AM - 7 Sep 2011
p1274
sa(dp1275
g2
VWhy was @BarackObama selling guns to Mexican drug dealers?
p1276
sg4
V10:37 AM - 7 Sep 2011
p1277
sa(dp1278
g2
VA robust growing economy is how to fix Social Security and Medicare---not cuts on Seniors.
p1279
sg4
V8:43 AM - 7 Sep 2011
p1280
sa(dp1281
g2
VUS should have told Libya "Rebels" --- give us 50% of your oil for our military support.
p1282
sg4
V7:53 AM - 7 Sep 2011
p1283
sa(dp1284
g2
VUSA should take oil from Iraq in repayment for their liberation.  http://bit.ly/pqBAMc 
p1285
sg4
V6:24 AM - 7 Sep 2011
p1286
sa(dp1287
g2
V@BarackObama trillion $ stimulus was supposed to create jobs -- instead it gave us more debt and higher unemployment.
p1288
sg4
V1:23 PM - 6 Sep 2011
p1289
sa(dp1290
g2
VThe UN is about to use its Assembly to attack @Israel. We should defund the UN entirely if they can't act resp\u2026 (cont) http://deck.ly/~VKD5c 
p1291
sg4
V12:57 PM - 6 Sep 2011
p1292
sa(dp1293
g2
V@BarackObama wishes speeches could create jobs.  His job is costing America all of ours.
p1294
sg4
V12:08 PM - 6 Sep 2011
p1295
sa(dp1296
g2
VFast and Furious   gun running goes all the way to the White House.  We need answers now!
p1297
sg4
V11:12 AM - 6 Sep 2011
p1298
sa(dp1299
g2
VOil is double the price now compared to last year--OPEC is laughing at @BarackObama.
p1300
sg4
V9:12 AM - 6 Sep 2011
p1301
sa(dp1302
g2
VFast and Furious put semi-automatics in the hands of Mexican drug lords that killed Americans - @BarackObama should answer all questions.
p1303
sg4
V11:27 AM - 2 Sep 2011
p1304
sa(dp1305
g2
VThe White House is predicting 9% unemployment throughout 2012 \u2013 and when Obama Care takes effect in 2014 expect it to go even higher.
p1306
sg4
V9:56 AM - 2 Sep 2011
p1307
sa(dp1308
g2
VMake no mistake---Fast and Furious goes ALL the way to the White House.
p1309
sg4
V12:00 PM - 1 Sep 2011
p1310
sa(dp1311
g2
V@BarackObama is so inept that I think he simply  made a mistake in originally scheduling the Joint Session on September 7th. Just sad.
p1312
sg4
V10:54 AM - 1 Sep 2011
p1313
sa(dp1314
g2
VThe unemployment numbers are tragic. We are letting the world take our jobs.  It has to stop!
p1315
sg4
V12:21 PM - 30 Sep 2011
p1316
sa(dp1317
g2
V@BarackObama said yesterday that we have "gone soft." How can the world respect us when our own President doesn't?
p1318
sg4
V11:05 AM - 30 Sep 2011
p1319
sa(dp1320
g2
VHow many  more billions of dollars will @BarackObama continue to waste in these solar companies?
p1321
sg4
V10:27 AM - 30 Sep 2011
p1322
sa(dp1323
g2
VEveryone should boycott Italy if Amanda Knox is  not freed---she is totally innocent.
p1324
sg4
V9:12 AM - 30 Sep 2011
p1325
sa(dp1326
g2
V@JonHuntsman called to set up a meeting. Haven't returned his call.
p1327
sg4
V9:06 AM - 30 Sep 2011
p1328
sa(dp1329
g2
V@VPBiden is actually right for once:  Biden: "Voters should blame Obama, not Bush, for economy." http://thedc.com/n1ShnO 
p1330
sg4
V8:22 AM - 30 Sep 2011
p1331
sa(dp1332
g2
VMy interview yesterday with @MyFoxNY
p1333
sg4
V7:40 AM - 30 Sep 2011
p1334
sa(dp1335
g2
VI'm thrilled to announce that my new tailored clothing line has officially launched at Macy's. In business it'\u2026 (cont) http://deck.ly/~USLDI 
p1336
sg4
V6:10 AM - 30 Sep 2011
p1337
sa(dp1338
g2
VA simplified tax code would spur economic growth and help create jobs. Unfortunately,  Washington is incapable of simplifying anything.
p1339
sg4
V1:27 PM - 29 Sep 2011
p1340
sa(dp1341
g2
VThe only way for Medicare and Social Security to remain solvent is if our economy is healthy. @BarackObama doesn't get it.
p1342
sg4
V1:13 PM - 29 Sep 2011
p1343
sa(dp1344
g2
VThe Iranians have just threatened to send warships to our coasts. They laugh at us. We can't allow them to develop nuclear weapons.
p1345
sg4
V12:51 PM - 29 Sep 2011
p1346
sa(dp1347
g2
VThe Fed's reckless policies of low interest and flooding the market with dollars needs to be stopped or we will face record inflation.
p1348
sg4
V12:24 PM - 29 Sep 2011
p1349
sa(dp1350
g2
VChina does not negotiate from a position of strength, we simply negotiate against ourselves. We have all the advantages but don't execute.
p1351
sg4
V11:50 AM - 29 Sep 2011
p1352
sa(dp1353
g2
VMy @FoxNews interview from yesterday discussing my recent meetings in Trump Tower and also @GovChristie
p1354
sg4
V11:34 AM - 29 Sep 2011
p1355
sa(dp1356
g2
VReally bad ratings  for Lawrence O'Donnell on MSNBC---O'Reilly is killing him!
p1357
sg4
V8:56 AM - 29 Sep 2011
p1358
sa(dp1359
g2
V@JonHuntsman has zero chance of getting the nomination. Whoever said I wanted to meet him? Time is money and I don't waste mine.
p1360
sg4
V8:23 AM - 29 Sep 2011
p1361
sa(dp1362
g2
VThe @erictrumpfdn Golf Invitational featuring a performance by @BretMichaels was a great event. Enjoy the video....
p1363
sg4
V3:21 PM - 28 Sep 2011
p1364
sa(dp1365
g2
VWhen will @BarackObama present an actual budget? Enough with the games.
p1366
sg4
V12:08 PM - 28 Sep 2011
p1367
sa(dp1368
g2
V"Sleepy" Chuck Todd of NBC falls far short of the late great Tim Russert.
p1369
sg4
V11:39 AM - 28 Sep 2011
p1370
sa(dp1371
g2
VChina is stealing our jobs. We need to demand China stop manipulating its currency and end its rampant corporate espionage.
p1372
sg4
V11:28 AM - 28 Sep 2011
p1373
sa(dp1374
g2
VOur economy is struggling and OPEC continues to rip us off. Output is low and the price is too high.  They ar\u2026 (cont) http://deck.ly/~GgzAS 
p1375
sg4
V1:03 PM - 27 Sep 2011
p1376
sa(dp1377
g2
VIt seems @BarackObama had our tax dollars buy guns for Mexican drug lords that were used to kill Americans. We need answers now.
p1378
sg4
V12:32 PM - 27 Sep 2011
p1379
sa(dp1380
g2
VA great interview of @DonaldJTrumpJr in the @ globeandmail on Trump Tower Toronto
p1381
sg4
V11:51 AM - 27 Sep 2011
p1382
sa(dp1383
g2
VMy @CNN  interview with @wolfblitzercnn yesterday discussing by meeting with @MittRomney   http://bit.ly/psa0A6 
p1384
sg4
V11:22 AM - 27 Sep 2011
p1385
sa(dp1386
g2
VMy @FoxNews interview from last night with @gretawire discussing yesterday's meeting with @MittRomney
p1387
sg4
V9:27 AM - 27 Sep 2011
p1388
sa(dp1389
g2
VMy @FoxNews interview from yesterday with @TeamCavuto discussing the economy, my trip to Australia, @MittRomne\u2026 (cont) http://deck.ly/~euY2L 
p1390
sg4
V8:46 AM - 27 Sep 2011
p1391
sa(dp1392
g2
VObamaCare is a major threat to America's entrepreneurial spirit and competitiveness. Small businesses will b\u2026 (cont) http://deck.ly/~GWq6V 
p1393
sg4
V8:59 AM - 26 Sep 2011
p1394
sa(dp1395
g2
VOur country's debt crisis cannot be solved by tax increases. We must cut government spending.
p1396
sg4
V7:34 AM - 26 Sep 2011
p1397
sa(dp1398
g2
VObama Care\u2019s taxes vest in 2014. Conveniently after the 2012 election. Coincidence?
p1399
sg4
V12:29 PM - 23 Sep 2011
p1400
sa(dp1401
g2
VOPEC is ripping us off on oil. We are ripping ourselves off by investing in unproven green energy. #Solyndra
p1402
sg4
V10:56 AM - 23 Sep 2011
p1403
sa(dp1404
g2
VOur deficit spending is China\u2019s gain. @BarackObama is bankrupting our country.
p1405
sg4
V8:17 AM - 23 Sep 2011
p1406
sa(dp1407
g2
VI couldn't make the Faith and Freedom confab in Orlando so I sent a video...
p1408
sg4
V3:08 PM - 22 Sep 2011
p1409
sa(dp1410
g2
VNow is no time to cut military spending. We must remain strong. Our enemies are looking for weakness. I'm i\u2026 (cont) http://deck.ly/~LerG4 
p1411
sg4
V10:58 AM - 22 Sep 2011
p1412
sa(dp1413
g2
VGovernment waste, fraud and abuse should be immediately addressed. This will help solve our deficit crisis both short and long term.
p1414
sg4
V8:25 AM - 22 Sep 2011
p1415
sa(dp1416
g2
V@EricTrump is doing a great job on completing our new Trump Winery in Virginia.
p1417
sg4
V6:26 AM - 22 Sep 2011
p1418
sa(dp1419
g2
V@BarackObama's Jobs Plan sure looks like a Tax Increase Plan to me.
p1420
sg4
V12:25 PM - 21 Sep 2011
p1421
sa(dp1422
g2
VAustralia is a beautiful country with terrific people who love America.
p1423
sg4
V11:27 AM - 21 Sep 2011
p1424
sa(dp1425
g2
VChina is neither an ally or a friend--they want to beat us and own our country.
p1426
sg4
V11:12 AM - 21 Sep 2011
p1427
sa(dp1428
g2
VOur next President must stop China's Rip-off of America.
p1429
sg4
V8:02 AM - 21 Sep 2011
p1430
sa(dp1431
g2
VJust finished speaking in Sydney, Australia, in front of 20,000 people and today I'm off to Melbourne for anot\u2026 (cont) http://deck.ly/~HYkFE 
p1432
sg4
V6:04 AM - 21 Sep 2011
p1433
sa(dp1434
g2
VRick Perry is right when he says we must stand by Israel in the UN.
p1435
sg4
V5:50 AM - 21 Sep 2011
p1436
sa(dp1437
g2
VObamaCare will destroy small business--the backbone of America's economy.
p1438
sg4
V12:30 PM - 20 Sep 2011
p1439
sa(dp1440
g2
V"If you're going to think--think big" --- The Art of the Deal
p1441
sg4
V10:57 AM - 20 Sep 2011
p1442
sa(dp1443
g2
VSorry I will miss the CPAC gathering in Orlando--there in spirit--Obama must go.
p1444
sg4
V7:50 AM - 20 Sep 2011
p1445
sa(dp1446
g2
V@BarackObama's method of spending the stimulus -- "Obama fundraiser linked to loan program that aided Solyndra"  http://lat.ms/oMylCJ 
p1447
sg4
V6:17 AM - 20 Sep 2011
p1448
sa(dp1449
g2
VI find it really hard to listen to @BarackObama's speeches. He doesn't have a clue.
p1450
sg4
V12:55 PM - 19 Sep 2011
p1451
sa(dp1452
g2
VIt  seems there is never a problem for which @BarackObama cannot find a reason for another speech and another tax.
p1453
sg4
V12:21 PM - 19 Sep 2011
p1454
sa(dp1455
g2
VMy interview which recently aired on CNBC's Squawk Box   http://video.cnbc.com/gallery/?video=3000045806 \u2026\u000aMy in\u2026 (cont) http://deck.ly/~7pCGe 
p1456
sg4
V10:54 AM - 19 Sep 2011
p1457
sa(dp1458
g2
VHow will raising taxes create jobs? Washington is all out of answers. New leadership is needed.
p1459
sg4
V10:24 AM - 19 Sep 2011
p1460
sa(dp1461
g2
VI am increasingly concerned with the UN's ploy against @Israel this coming week and will monitor all events closely from Australia.
p1462
sg4
V8:15 AM - 19 Sep 2011
p1463
sa(dp1464
g2
VWatch my latest appearance on Squawk Box .... http://bit.ly/pWF1wx 
p1465
sg4
V6:52 PM - 18 Sep 2011
p1466
sa(dp1467
g2
VIf China had a tenth of the natural resources we do then they would already be energy independent. Instead we continue to buy oil from OPEC.
p1468
sg4
V2:20 PM - 16 Sep 2011
p1469
sa(dp1470
g2
VMy thoughts on the Emmys in today's #trumpvlog....
p1471
sg4
V2:16 PM - 16 Sep 2011
p1472
sa(dp1473
g2
V"It  doesn't cost any money to think bigger."  -- The Art of the Deal
p1474
sg4
V1:20 PM - 16 Sep 2011
p1475
sa(dp1476
g2
V@BarackObama---great job on Solyndra. You are some extremely skilled venture capitalist. Stick to the memoirs and speeches.
p1477
sg4
V12:41 PM - 16 Sep 2011
p1478
sa(dp1479
g2
V@BarackObama -- honored and excited to be listed on @AttackWatch. Thanks. BTW -- where are the jobs?   Donald.
p1480
sg4
V11:13 AM - 16 Sep 2011
p1481
sa(dp1482
g2
VI applaud @netanyahu for announcing that he will show up at the UN to defend @Israel. A true US friend and great leader.
p1483
sg4
V8:33 AM - 16 Sep 2011
p1484
sa(dp1485
g2
VWe can create jobs in the American economy by protecting our own manufacturing sector.
p1486
sg4
V11:41 AM - 15 Sep 2011
p1487
sa(dp1488
g2
VCan you imagine if @BarackObama had passed Cap and Trade?!  Energy costs would be double from already record highs.
p1489
sg4
V10:47 AM - 15 Sep 2011
p1490
sa(dp1491
g2
VThe Solyndra Scandal--@BarackObama's $500Million photo op. He loves wasting our money.
p1492
sg4
V8:43 AM - 15 Sep 2011
p1493
sa(dp1494
g2
VMy @FoxNews interview last night on @gretawire -- "On 2012:  I'll Wait and See"
p1495
sg4
V7:26 AM - 15 Sep 2011
p1496
sa(dp1497
g2
VHad dinner with @RickPerry last night---great guy, straight shooter, impressive record.
p1498
sg4
V6:52 AM - 15 Sep 2011
p1499
sa(dp1500
g2
VThird Gun Linked to 'Fast and Furious' Identified at Border Agent's Murder Scene. When will the White House come clean?
p1501
sg4
V12:24 PM - 14 Sep 2011
p1502
sa(dp1503
g2
V@BarackObama's job bill contains the word 'Tax' over 330 times--that will sure work!
p1504
sg4
V11:12 AM - 14 Sep 2011
p1505
sa(dp1506
g2
VMy interview yesterday with @TeamCavuto where I discuss Dick Cheney and China  http://bit.ly/pzfJd7 
p1507
sg4
V8:42 AM - 14 Sep 2011
p1508
sa(dp1509
g2
VBob Turner--great guy, great businessman, will be a great Congressman. Was happy to help him win.
p1510
sg4
V7:09 AM - 14 Sep 2011
p1511
sa(dp1512
g2
VI'm looking forward to seeing you all this afternoon at Macy's Herald Square.  5:30 pm at the Crystal department on 8.
p1513
sg4
V6:57 AM - 14 Sep 2011
p1514
sa(dp1515
g2
V@BarackObama will hear loud and clear today the message NY-9 is sending by electing @Bobturner9th -- @Israel is our friend and ally.
p1516
sg4
V11:49 AM - 13 Sep 2011
p1517
sa(dp1518
g2
VWe should immediately close all tax loopholes that favor foreign investments and taking our jobs overseas t\u2026 (cont) http://deck.ly/~g6wcI 
p1519
sg4
V10:36 AM - 13 Sep 2011
p1520
sa(dp1521
g2
VI'm very proud of my new crystal collection. Here's a sneak peak of my favorite collection Elmsford  http://bi\u2026 (cont) http://deck.ly/~ZqJAk 
p1522
sg4
V8:40 AM - 13 Sep 2011
p1523
sa(dp1524
g2
VThe White House is continuing to be openly uncooperative with the Fast and Furious investigation. American lives were lost. We need answers.
p1525
sg4
V8:04 AM - 13 Sep 2011
p1526
sa(dp1527
g2
VThe Eric Trump Foundation Golf Invitational benefiting St. Jude Children's Research Hospital is today--and i\u2026 (cont) http://deck.ly/~HwhB2 
p1528
sg4
V7:33 AM - 13 Sep 2011
p1529
sa(dp1530
g2
VHow can the economy ever recover when @BarackObama keeps threatening the private sector with more taxes. This is no way to spur growth.
p1531
sg4
V6:40 AM - 13 Sep 2011
p1532
sa(dp1533
g2
VI'm urging my friends in Brooklyn to vote for Bob Turner tomorrow--send @barackobama a message.
p1534
sg4
V6:27 PM - 12 Sep 2011
p1535
sa(dp1536
g2
VFriends in NY-9, let @BarackObama know that you don't approve of his mistreatment of @Israel.  Vote for @Bobturner9th tomorrow!
p1537
sg4
V6:23 PM - 12 Sep 2011
p1538
sa(dp1539
g2
VThe American economy would grow if Washington didn\u2019t keep threatening higher taxes and more regulations. Government is not the solution.
p1540
sg4
V3:56 PM - 12 Sep 2011
p1541
sa(dp1542
g2
VMy thoughts on @andyroddick in today's #trumpvlog....
p1543
sg4
V3:01 PM - 12 Sep 2011
p1544
sa(dp1545
g2
VWatch the 2011 #MissUniverse Pageant tonight at 9PM on NBC... http://bit.ly/qpEt5z 
p1546
sg4
V2:59 PM - 12 Sep 2011
p1547
sa(dp1548
g2
VThe World Economic Forum now ranks the US the fifth most competitive economy in the world. We have fallen from first under @BarackObama.
p1549
sg4
V2:34 PM - 12 Sep 2011
p1550
sa(dp1551
g2
VIran\u2019s nuclear program must be stopped \u2013 by any and all means necessary.
p1552
sg4
V2:17 PM - 12 Sep 2011
p1553
sa(dp1554
g2
VVery exciting. I will be at Macy\u2019s Herald Square this Wednesday at 5:30pm to celebrate the launch of Trump Home crystal!
p1555
sg4
V2:08 PM - 12 Sep 2011
p1556
sa(dp1557
g2
VWant jobs? Slash corporate tax rate.  Tax incentives for companies that create jobs in US.  America will boom.
p1558
sg4
V12:20 PM - 9 Sep 2011
p1559
sa(dp1560
g2
V@BarackObama---the stimulus will fail, just like the first.
p1561
sg4
V11:30 AM - 9 Sep 2011
p1562
sa(dp1563
g2
VI watched POTUS speech from Europe---same old "tax and spend" won't create jobs.
p1564
sg4
V10:41 AM - 9 Sep 2011
p1565
sa(dp1566
g2
V@IvankaTrump always makes me proud
p1567
sg4
V12:28 PM - 8 Sep 2011
p1568
sa(dp1569
g2
VWhy is the UN planning to attack @Israel's sovereignty and ignore Iran's nuclear program? The US should look at future funding.
p1570
sg4
V11:46 AM - 8 Sep 2011
p1571
sa(dp1572
g2
VChina is happy to learn that @BarackObama plans to borrow another $300 Billion. @BarackObama is their favorite client.
p1573
sg4
V10:23 AM - 8 Sep 2011
p1574
sa(dp1575
g2
VIf only speeches could create jobs then @BarackObama wouldn't have such a dismal economic record.
p1576
sg4
V9:01 AM - 8 Sep 2011
p1577
sa(dp1578
g2
VMy interview yesterday with @IngrahamAngle  http://bit.ly/p7edDr 
p1579
sg4
V8:22 AM - 8 Sep 2011
p1580
sa(dp1581
g2
VMy interview with @gretawire last night on @FoxNews:  @BarackObama 'Missed His Opportunity'
p1582
sg4
V7:24 AM - 8 Sep 2011
p1583
sa(dp1584
g2
VAmerica needs a tough negotiator---not a community organizer.
p1585
sg4
V11:45 AM - 7 Sep 2011
p1586
sa(dp1587
g2
VWhy was @BarackObama selling guns to Mexican drug dealers?
p1588
sg4
V10:37 AM - 7 Sep 2011
p1589
sa(dp1590
g2
VA robust growing economy is how to fix Social Security and Medicare---not cuts on Seniors.
p1591
sg4
V8:43 AM - 7 Sep 2011
p1592
sa(dp1593
g2
VUS should have told Libya "Rebels" --- give us 50% of your oil for our military support.
p1594
sg4
V7:53 AM - 7 Sep 2011
p1595
sa(dp1596
g2
VUSA should take oil from Iraq in repayment for their liberation.  http://bit.ly/pqBAMc 
p1597
sg4
V6:24 AM - 7 Sep 2011
p1598
sa(dp1599
g2
V@BarackObama trillion $ stimulus was supposed to create jobs -- instead it gave us more debt and higher unemployment.
p1600
sg4
V1:23 PM - 6 Sep 2011
p1601
sa(dp1602
g2
VThe UN is about to use its Assembly to attack @Israel. We should defund the UN entirely if they can't act resp\u2026 (cont) http://deck.ly/~VKD5c 
p1603
sg4
V12:57 PM - 6 Sep 2011
p1604
sa(dp1605
g2
V@BarackObama wishes speeches could create jobs.  His job is costing America all of ours.
p1606
sg4
V12:08 PM - 6 Sep 2011
p1607
sa(dp1608
g2
VFast and Furious   gun running goes all the way to the White House.  We need answers now!
p1609
sg4
V11:12 AM - 6 Sep 2011
p1610
sa(dp1611
g2
VOil is double the price now compared to last year--OPEC is laughing at @BarackObama.
p1612
sg4
V9:12 AM - 6 Sep 2011
p1613
sa(dp1614
g2
VFast and Furious put semi-automatics in the hands of Mexican drug lords that killed Americans - @BarackObama should answer all questions.
p1615
sg4
V11:27 AM - 2 Sep 2011
p1616
sa(dp1617
g2
VThe White House is predicting 9% unemployment throughout 2012 \u2013 and when Obama Care takes effect in 2014 expect it to go even higher.
p1618
sg4
V9:56 AM - 2 Sep 2011
p1619
sa(dp1620
g2
VMake no mistake---Fast and Furious goes ALL the way to the White House.
p1621
sg4
V12:00 PM - 1 Sep 2011
p1622
sa(dp1623
g2
V@BarackObama is so inept that I think he simply  made a mistake in originally scheduling the Joint Session on September 7th. Just sad.
p1624
sg4
V10:54 AM - 1 Sep 2011
p1625
sa(dp1626
g2
VObamaCare contains marriage penalty taxes. Why should married couples be penalized for having healthcare?
p1627
sg4
V9:55 AM - 28 Oct 2011
p1628
sa(dp1629
g2
VWhen will our nation's sacrifices  be respectfully appreciated? Iraq and Libya should reimburse us in oil.
p1630
sg4
V10:31 AM - 27 Oct 2011
p1631
sa(dp1632
g2
VWhy aren't we getting any oil from Iraq before we leave? We are leaving the country wide open for Iran. Big mistake.
p1633
sg4
V1:26 PM - 26 Oct 2011
p1634
sa(dp1635
g2
VTHe 2012 election is the most important in my lifetime. We must nominate a candidate who will win and will roll back @BarackObama's damage.
p1636
sg4
V1:28 PM - 25 Oct 2011
p1637
sa(dp1638
g2
VStop calling my office to do your show, I have more important things to do with my time--- nobody's watching you! @lawrence
p1639
sg4
V12:18 PM - 25 Oct 2011
p1640
sa(dp1641
g2
VMy interview from last night with @piersmorgan discussing OWS
p1642
sg4
V7:42 AM - 28 Oct 2011
p1643
sa(dp1644
g2
VThe US Air Force won the war in Libya to clear the way for Islamic Extremist control of Libya.
p1645
sg4
V12:37 PM - 27 Oct 2011
p1646
sa(dp1647
g2
VThe Debt is our nation's greatest threat. @BarackObama is out of touch.
p1648
sg4
V8:50 AM - 27 Oct 2011
p1649
sa(dp1650
g2
VWhen will Washington stand up to China. China is manipulating its currency and stealing our jobs. Washington should move on legislation.
p1651
sg4
V12:48 PM - 26 Oct 2011
p1652
sa(dp1653
g2
VWhy does the federal government send foreign aid  to China? Unbelievable! Washington is financing America's de\u2026 (cont) http://deck.ly/~2h6F4 
p1654
sg4
V11:58 AM - 25 Oct 2011
p1655
sa(dp1656
g2
VPlease only respond by tweet @lawrence because like everyone else, I don't watch your show.
p1657
sg4
V11:19 AM - 25 Oct 2011
p1658
sa(dp1659
g2
VDoes @BarackObama ever work? He is constantly campaigning and fundraising--on both the taxpayer's dime and time---not fair!
p1660
sg4
V11:10 AM - 25 Oct 2011
p1661
sa(dp1662
g2
VLibya is adopting a more radical form of Sharia Law now under their new leadership. Is this what @BarackObama wanted?
p1663
sg4
V1:42 PM - 24 Oct 2011
p1664
sa(dp1665
g2
VSo much for creating American jobs--@BarackObama gave $529 Million to a "Green" car company---so they can be manufactured in Finland.
p1666
sg4
V1:11 PM - 24 Oct 2011
p1667
sa(dp1668
g2
VThe job plan by @BarackObama is nothing more than a second stimulus. The first failed and so will this one.
p1669
sg4
V12:45 PM - 24 Oct 2011
p1670
sa(dp1671
g2
VWe are leaving Iraq after expending a tremendous amount of blood and treasure. We should be reimbursed with oil! -- Don't give it to Iran.
p1672
sg4
V10:01 AM - 24 Oct 2011
p1673
sa(dp1674
g2
VThe Dollar is at an all-time WWII low against the Yen. The Fed's recklessness is going to lead to record inflation.
p1675
sg4
V9:39 AM - 24 Oct 2011
p1676
sa(dp1677
g2
VWhy do we continue to sit idly by while China steals our national security and corporate secrets? China is an enemy, not a friend.
p1678
sg4
V12:15 PM - 21 Oct 2011
p1679
sa(dp1680
g2
VWhy did we spend billions of our money on Libya if we are not going to get any of the country's oil? What do we get out of this?
p1681
sg4
V7:14 AM - 21 Oct 2011
p1682
sa(dp1683
g2
VWhy is  crude oil priced at $86/Barrel?  OPEC is  ripping us off. Not worth $30/Barrel.  America needs new leaders.
p1684
sg4
V6:23 AM - 21 Oct 2011
p1685
sa(dp1686
g2
VBoth @BarackObama and China have embraced OWS. All want the decline of America. Time for the protesters to go home.
p1687
sg4
V9:55 AM - 19 Oct 2011
p1688
sa(dp1689
g2
VOur country is blowing up and @BarackObama is out campaigning.
p1690
sg4
V7:05 AM - 19 Oct 2011
p1691
sa(dp1692
g2
V"Everyone makes mistakes, but it's what you do with them and what you learn from them that matters." -- Midas Touch
p1693
sg4
V5:53 AM - 19 Oct 2011
p1694
sa(dp1695
g2
VIraq's government is treating us like fools. We should demand their oil.
p1696
sg4
V1:07 PM - 18 Oct 2011
p1697
sa(dp1698
g2
VIf ObamaCare is not repealed then we can expect stagnant growth, long term unemployment and record high premiums.
p1699
sg4
V12:15 PM - 18 Oct 2011
p1700
sa(dp1701
g2
VIran was planning to attack the Israeli and Saudi DC embassies. We should respond accordingly. The diplomatic  window is closed.
p1702
sg4
V8:13 AM - 18 Oct 2011
p1703
sa(dp1704
g2
VIt is time for Iran to face serious consequences. This regime is a threat to our national security.
p1705
sg4
V6:00 AM - 18 Oct 2011
p1706
sa(dp1707
g2
VLate last Friday @BarackObama announced his 2011 budget deficit  was $1.299 trillion -- the second largest in US history.
p1708
sg4
V1:52 PM - 17 Oct 2011
p1709
sa(dp1710
g2
VWhy is @BarackObama always campaigning or on vacation?
p1711
sg4
V10:43 AM - 17 Oct 2011
p1712
sa(dp1713
g2
VChina's military buildup is a major threat to the Free World. We must remain resolute and maintain our national defense at all costs.
p1714
sg4
V6:17 AM - 17 Oct 2011
p1715
sa(dp1716
g2
VIf the Wall Street protesters are upset about the economy then they should really be protesting @BarackObama at the White House.
p1717
sg4
V10:06 AM - 14 Oct 2011
p1718
sa(dp1719
g2
VWhen will @BarackObama release an actual budget?
p1720
sg4
V12:30 PM - 11 Oct 2011
p1721
sa(dp1722
g2
VI don't want to be the only billionaire in America---I want all Americans to be rich.
p1723
sg4
V11:31 AM - 11 Oct 2011
p1724
sa(dp1725
g2
VIf the Prez wants to create jobs talk to some business people---not liberal intellectuals.
p1726
sg4
V10:44 AM - 11 Oct 2011
p1727
sa(dp1728
g2
VThe only way to spread economic growth is to lower taxes and end unfriendly regulatory practices.
p1729
sg4
V10:15 AM - 11 Oct 2011
p1730
sa(dp1731
g2
VThe Fed's reckless monetary policy is going to create record inflation.
p1732
sg4
V8:33 AM - 11 Oct 2011
p1733
sa(dp1734
g2
VNew study shows 80% of Congress have no business experience--it shows!
p1735
sg4
V7:30 AM - 11 Oct 2011
p1736
sa(dp1737
g2
VA guy named @BobBeckel on FOX, their resident liberal, was not born with much of a brain.
p1738
sg4
V7:06 AM - 11 Oct 2011
p1739
sa(dp1740
g2
VI have traveled the world. America is the most beautiful country on Earth.
p1741
sg4
V1:08 PM - 7 Oct 2011
p1742
sa(dp1743
g2
VThe only job @BarackObama cares about is his own. Everything he does is for his own reelection.
p1744
sg4
V12:52 PM - 7 Oct 2011
p1745
sa(dp1746
g2
VWhen will we stop wasting our money on rebuilding Afghanistan? We must rebuild our country first.
p1747
sg4
V12:43 PM - 7 Oct 2011
p1748
sa(dp1749
g2
VThe GOP primary schedule is a disaster. Not enough time.
p1750
sg4
V12:38 PM - 7 Oct 2011
p1751
sa(dp1752
g2
VA-Rod is a less than average baseball player now that he is unable to use drugs. A-Rod misrepresented to th\u2026 (cont) http://deck.ly/~1qEbC 
p1753
sg4
V12:25 PM - 7 Oct 2011
p1754
sa(dp1755
g2
V@BarackObama is trying to pass another stimulus after the first was a complete failure. Does he really believe we are that stupid?
p1756
sg4
V12:21 PM - 7 Oct 2011
p1757
sa(dp1758
g2
VWhy is the UN condemning @Israel and doing nothing about Syria? What a disgrace.
p1759
sg4
V10:07 AM - 6 Oct 2011
p1760
sa(dp1761
g2
VIn order to save Medicare and stop record premium increases--we must repeal ObamaCare.
p1762
sg4
V8:44 AM - 6 Oct 2011
p1763
sa(dp1764
g2
VWashington is wasting over $2 billion this year on Solyndra type loans. Yet they want to cut military spending.
p1765
sg4
V7:32 AM - 6 Oct 2011
p1766
sa(dp1767
g2
VChina is threatening Washington over the currency bill.  We should pass it immediately.
p1768
sg4
V6:49 AM - 6 Oct 2011
p1769
sa(dp1770
g2
V@BarackObama sold guns to the Mexican drug cartels.  They were used in the murders of Americans . Where is the outrage?
p1771
sg4
V9:11 AM - 5 Oct 2011
p1772
sa(dp1773
g2
V@BarackObama now says  that he is an "underdog in 2012." America should be so lucky. We still need a solid candidate.
p1774
sg4
V8:04 AM - 5 Oct 2011
p1775
sa(dp1776
g2
VOur national debt has grown by 30% and a gallon of gas has doubled so far under @BarackObama. He is a disaster.
p1777
sg4
V12:05 PM - 4 Oct 2011
p1778
sa(dp1779
g2
VThe Democrats in the Super Committee want to raise taxes first in deficit talks. Huge mistake. Cut wasteful spending first.
p1780
sg4
V11:29 AM - 4 Oct 2011
p1781
sa(dp1782
g2
V@BarackObama released documents late last Friday proving his administration was directly involved in sellin\u2026 (cont) http://deck.ly/~7Vthe 
p1783
sg4
V10:54 AM - 4 Oct 2011
p1784
sa(dp1785
g2
VGreat meeting with @THEHermanCain yesterday in Trump Tower. Great guy!
p1786
sg4
V9:13 AM - 4 Oct 2011
p1787
sa(dp1788
g2
VLooking forward to visiting the Trump Vineyard Estates today in Charlottesville, VA, for a press conference and the grand opening.
p1789
sg4
V8:13 AM - 4 Oct 2011
p1790
sa(dp1791
g2
VGreat article in @torontodotcom - "@DonaldJTrumpJr: the original apprentice"  http://bit.ly/rberx5 
p1792
sg4
V7:36 AM - 4 Oct 2011
p1793
sa(dp1794
g2
VI was on  CNN last night with @ErinBurnett.
p1795
sg4
V7:32 AM - 4 Oct 2011
p1796
sa(dp1797
g2
VWatch my interview with Greta Van Susteren @Gretawire tonight at 10 p.m. on Fox News.
p1798
sg4
V1:38 PM - 3 Oct 2011
p1799
sa(dp1800
g2
VIt's about time Italy recognized the innocence of @AmandaKnox---great news!
p1801
sg4
V12:56 PM - 3 Oct 2011
p1802
sa(dp1803
g2
VLooking forward to speaking at #sparknb next week in Atlantic Canada--my first time ever.
p1804
sg4
V11:32 AM - 3 Oct 2011
p1805
sa(dp1806
g2
VMy book, Midas Touch, with Robert Kiyosaki (Rich Dad, Poor Dad) will be in bookstores tomorrow--it's a grea\u2026 (cont) http://deck.ly/~vkQh7 
p1807
sg4
V10:54 AM - 3 Oct 2011
p1808
sa(dp1809
g2
V@THeCelebrityApprentice  cast is set---the best we've ever had. Shooting starts in 2 weeks---airs  in February.
p1810
sg4
V8:34 AM - 3 Oct 2011
p1811
sa(dp1812
g2
V@USGovernment has done nothing to help @AmandaKnox.
p1813
sg4
V7:44 AM - 3 Oct 2011
p1814
sa(dp1815
g2
VBernie Madoff and Tony La Russa in today's #trumpvlog...
p1816
sg4
V9:13 AM - 31 Oct 2011
p1817
sa(dp1818
g2
VOur economy cannot stay competitive with policies like these: @BarackObama is proposing over $90 Billion in new regulations.
p1819
sg4
V11:18 AM - 28 Oct 2011
p1820
sa(dp1821
g2
VObamaCare contains marriage penalty taxes. Why should married couples be penalized for having healthcare?
p1822
sg4
V9:55 AM - 28 Oct 2011
p1823
sa(dp1824
g2
VMy interview from last night with @piersmorgan discussing OWS
p1825
sg4
V7:42 AM - 28 Oct 2011
p1826
sa(dp1827
g2
VMy interview yesterday with @TeamCavuto discussing Europe's debt deal and the GOP primary
p1828
sg4
V6:47 AM - 28 Oct 2011
p1829
sa(dp1830
g2
VThe US Air Force won the war in Libya to clear the way for Islamic Extremist control of Libya.
p1831
sg4
V12:37 PM - 27 Oct 2011
p1832
sa(dp1833
g2
VOur worst threat to unemployment is @ObamaCare.  It will also destroy our country's basic standards.
p1834
sg4
V11:27 AM - 27 Oct 2011
p1835
sa(dp1836
g2
VWhen will our nation's sacrifices  be respectfully appreciated? Iraq and Libya should reimburse us in oil.
p1837
sg4
V10:31 AM - 27 Oct 2011
p1838
sa(dp1839
g2
VThe Debt is our nation's greatest threat. @BarackObama is out of touch.
p1840
sg4
V8:50 AM - 27 Oct 2011
p1841
sa(dp1842
g2
VWatch me tonight at 9PM ET on @CNN, full hour. @Piersmorgan won @ApprenticeNBC before taking over Larry King's slot- should be interesting.
p1843
sg4
V7:54 AM - 27 Oct 2011
p1844
sa(dp1845
g2
VWhy aren't we getting any oil from Iraq before we leave? We are leaving the country wide open for Iran. Big mistake.
p1846
sg4
V1:26 PM - 26 Oct 2011
p1847
sa(dp1848
g2
VWhen will Washington stand up to China. China is manipulating its currency and stealing our jobs. Washington should move on legislation.
p1849
sg4
V12:48 PM - 26 Oct 2011
p1850
sa(dp1851
g2
VI am happy to see the majority of the GOP candidates agree with me that the tax code must be simplified and the rates dropped.
p1852
sg4
V12:16 PM - 26 Oct 2011
p1853
sa(dp1854
g2
VMy @FoxNews interview last night with @Gretawire
p1855
sg4
V10:51 AM - 26 Oct 2011
p1856
sa(dp1857
g2
VIn response to @Lawrence, my net worth is substantially more than 7 billion dollars--- very low debt, great as\u2026 (cont) http://deck.ly/~X8wL6 
p1858
sg4
V9:38 AM - 26 Oct 2011
p1859
sa(dp1860
g2
VRead this about @Lawrence....
p1861
sg4
V9:29 AM - 26 Oct 2011
p1862
sa(dp1863
g2
VI heard, because his show is unwatchable, that @Lawrence has made many false statements last night about me. Maybe I should sue him?
p1864
sg4
V9:23 AM - 26 Oct 2011
p1865
sa(dp1866
g2
VWatch me tonight on Fox News at 10 p.m. with Greta Van Susteren, @Gretawire.
p1867
sg4
V1:40 PM - 25 Oct 2011
p1868
sa(dp1869
g2
VTHe 2012 election is the most important in my lifetime. We must nominate a candidate who will win and will roll back @BarackObama's damage.
p1870
sg4
V1:28 PM - 25 Oct 2011
p1871
sa(dp1872
g2
VThe notion of the "Arab Spring" is a canard. The Middle East is being conquered by Islamic radicals with th\u2026 (cont) http://deck.ly/~GiaW6 
p1873
sg4
V1:05 PM - 25 Oct 2011
p1874
sa(dp1875
g2
V@Lawrence There is no such thing--- they can't get much lower than yours.
p1876
sg4
V11:18 AM - 25 Oct 2011
p1877
sa(dp1878
g2
V@Lawrence Yes, great hair, and it's actually mine.
p1879
sg4
V11:14 AM - 25 Oct 2011
p1880
sa(dp1881
g2
VDoes @BarackObama ever work? He is constantly campaigning and fundraising--on both the taxpayer's dime and time---not fair!
p1882
sg4
V11:10 AM - 25 Oct 2011
p1883
sa(dp1884
g2
VI only go on shows that get ratings, that's why I do @oreillyfactor, @hannityshow, and @gretawire. Your sho\u2026 (cont) http://deck.ly/~sQ7Iu 
p1885
sg4
V10:05 AM - 25 Oct 2011
p1886
sa(dp1887
g2
VLast year @Lawrence strongly predicted that @TimPawlenty would be the Republican nominee--@Lawrence is a tota\u2026 (cont) http://deck.ly/~T9UKj 
p1888
sg4
V8:07 AM - 25 Oct 2011
p1889
sa(dp1890
g2
VPrinting money is neither a short or long term solution to our country's economic woes. The Fed is destroyin\u2026 (cont) http://deck.ly/~lLQsV 
p1891
sg4
V7:38 AM - 25 Oct 2011
p1892
sa(dp1893
g2
VLibya is adopting a more radical form of Sharia Law now under their new leadership. Is this what @BarackObama wanted?
p1894
sg4
V1:42 PM - 24 Oct 2011
p1895
sa(dp1896
g2
VSo much for creating American jobs--@BarackObama gave $529 Million to a "Green" car company---so they can be manufactured in Finland.
p1897
sg4
V1:11 PM - 24 Oct 2011
p1898
sa(dp1899
g2
VThe job plan by @BarackObama is nothing more than a second stimulus. The first failed and so will this one.
p1900
sg4
V12:45 PM - 24 Oct 2011
p1901
sa(dp1902
g2
VSee what I have to say about Iran and Iraq in today's #trumpvlog...
p1903
sg4
V10:36 AM - 24 Oct 2011
p1904
sa(dp1905
g2
VWe are leaving Iraq after expending a tremendous amount of blood and treasure. We should be reimbursed with oil! -- Don't give it to Iran.
p1906
sg4
V10:01 AM - 24 Oct 2011
p1907
sa(dp1908
g2
VThe Dollar is at an all-time WWII low against the Yen. The Fed's recklessness is going to lead to record inflation.
p1909
sg4
V9:39 AM - 24 Oct 2011
p1910
sa(dp1911
g2
VWhy do we continue to sit idly by while China steals our national security and corporate secrets? China is an enemy, not a friend.
p1912
sg4
V12:15 PM - 21 Oct 2011
p1913
sa(dp1914
g2
VThe Misery Index is at a 28 year high.
p1915
sg4
V11:24 AM - 21 Oct 2011
p1916
sa(dp1917
g2
VWhy did @BarackObama liberate Libya and do nothing for the Iranian protestors? Iran is a threat to our national security.
p1918
sg4
V11:11 AM - 21 Oct 2011
p1919
sa(dp1920
g2
VA simplified tax code will help promote growth in the private sector.
p1921
sg4
V8:12 AM - 21 Oct 2011
p1922
sa(dp1923
g2
VWhy did we spend billions of our money on Libya if we are not going to get any of the country's oil? What do we get out of this?
p1924
sg4
V7:14 AM - 21 Oct 2011
p1925
sa(dp1926
g2
VWhy is  crude oil priced at $86/Barrel?  OPEC is  ripping us off. Not worth $30/Barrel.  America needs new leaders.
p1927
sg4
V6:23 AM - 21 Oct 2011
p1928
sa(dp1929
g2
VMy thoughts on Gadhafi's death, @BarackObama, and the misery index... http://youtu.be/EEZBDTHy1o4  #trumpvlog
p1930
sg4
V12:51 PM - 20 Oct 2011
p1931
sa(dp1932
g2
VThe OWS protesters are doing nothing to advance the interests of the 99%. Time for them to go home!
p1933
sg4
V12:15 PM - 20 Oct 2011
p1934
sa(dp1935
g2
V@BarackObama claims that all his choices were "the right ones." I am sure the 20% of Americans who are unemployed disagree.
p1936
sg4
V11:26 AM - 20 Oct 2011
p1937
sa(dp1938
g2
VBob Beckel, a commentator for FOX is bad for the @FoxNews brand:  @BobBeckel is close to incompetent.
p1939
sg4
V10:56 AM - 20 Oct 2011
p1940
sa(dp1941
g2
V"Sometimes understanding other people's problems is the key to finding opportunities."  -- Midas Touch w/@atheRealKiyosaki
p1942
sg4
V10:42 AM - 20 Oct 2011
p1943
sa(dp1944
g2
VAmerica needs to rebuild our infrastructure. Why are we sending trillions overseas when our own roads, bridge\u2026 (cont) http://deck.ly/~dDUUc 
p1945
sg4
V9:43 AM - 20 Oct 2011
p1946
sa(dp1947
g2
VWe must stop outsourcing our jobs overseas and end our multi-billion dollar trade deficits.
p1948
sg4
V9:09 AM - 20 Oct 2011
p1949
sa(dp1950
g2
VMy beautiful wife Melania will be appearing on QVC this evening from 8 to 9 pm.
p1951
sg4
V8:26 AM - 20 Oct 2011
p1952
sa(dp1953
g2
VBoth @BarackObama and China have embraced OWS. All want the decline of America. Time for the protesters to go home.
p1954
sg4
V9:55 AM - 19 Oct 2011
p1955
sa(dp1956
g2
VMy thoughts on @barackobama's campaign....
p1957
sg4
V8:55 AM - 19 Oct 2011
p1958
sa(dp1959
g2
VMy @FoxNews interview last night on @hannityshow discussing OWS and  @BarackObama's incompetent leadership.
p1960
sg4
V8:08 AM - 19 Oct 2011
p1961
sa(dp1962
g2
VOur country is blowing up and @BarackObama is out campaigning.
p1963
sg4
V7:05 AM - 19 Oct 2011
p1964
sa(dp1965
g2
V"Everyone makes mistakes, but it's what you do with them and what you learn from them that matters." -- Midas Touch
p1966
sg4
V5:53 AM - 19 Oct 2011
p1967
sa(dp1968
g2
VIraq's government is treating us like fools. We should demand their oil.
p1969
sg4
V1:07 PM - 18 Oct 2011
p1970
sa(dp1971
g2
VIf ObamaCare is not repealed then we can expect stagnant growth, long term unemployment and record high premiums.
p1972
sg4
V12:15 PM - 18 Oct 2011
p1973
sa(dp1974
g2
VNow China is publicly supporting the OWS protests  http://apne.ws/opKzMd .  It's time for the protesters to go home.
p1975
sg4
V11:12 AM - 18 Oct 2011
p1976
sa(dp1977
g2
VWatch @Seanhannity tonight on his show, Hannity, Fox News at 9 pm.  I'll be on and we'll cover the Wall Stree\u2026 (cont) http://deck.ly/~BNnFD 
p1978
sg4
V9:08 AM - 18 Oct 2011
p1979
sa(dp1980
g2
VIran was planning to attack the Israeli and Saudi DC embassies. We should respond accordingly. The diplomatic  window is closed.
p1981
sg4
V8:13 AM - 18 Oct 2011
p1982
sa(dp1983
g2
V@BarackObama is holding Taiwan's request for 66 advanced F-16's. Wrong message to send to China.
p1984
sg4
V7:16 AM - 18 Oct 2011
p1985
sa(dp1986
g2
VIt is time for Iran to face serious consequences. This regime is a threat to our national security.
p1987
sg4
V6:00 AM - 18 Oct 2011
p1988
sa(dp1989
g2
VLate last Friday @BarackObama announced his 2011 budget deficit  was $1.299 trillion -- the second largest in US history.
p1990
sg4
V1:52 PM - 17 Oct 2011
p1991
sa(dp1992
g2
V@Johnboehner: Stop "The China Curse" --- Pass the China Currency Bill!
p1993
sg4
V1:03 PM - 17 Oct 2011
p1994
sa(dp1995
g2
VHappy to have passed 800,000 followers.  Looking forward to passing 1M sooner than later.
p1996
sg4
V12:37 PM - 17 Oct 2011
p1997
sa(dp1998
g2
VWhy is @BarackObama always campaigning or on vacation?
p1999
sg4
V10:43 AM - 17 Oct 2011
p2000
sa(dp2001
g2
VMy new book Midas Touch in stores now.... http://youtu.be/7q31wh8c6Ao  #trumpvlog
p2002
sg4
V7:32 AM - 17 Oct 2011
p2003
sa(dp2004
g2
VChina's military buildup is a major threat to the Free World. We must remain resolute and maintain our national defense at all costs.
p2005
sg4
V6:17 AM - 17 Oct 2011
p2006
sa(dp2007
g2
VBe sure to watch my wonderful wife Melania Trump tonight on @QVC at 1AM EST
p2008
sg4
V4:58 PM - 16 Oct 2011
p2009
sa(dp2010
g2
VMore questions answered... http://youtu.be/clGGLPLvOL8  #trumpvlog
p2011
sg4
V1:27 PM - 15 Oct 2011
p2012
sa(dp2013
g2
VCheck out the #trumpvlog to see the answers to your questions...
p2014
sg4
V11:31 AM - 15 Oct 2011
p2015
sa(dp2016
g2
VIf the Wall Street protesters are upset about the economy then they should really be protesting @BarackObama at the White House.
p2017
sg4
V10:06 AM - 14 Oct 2011
p2018
sa(dp2019
g2
VStop "The China Curse" -- Pass the Chinese Currency Bill!
p2020
sg4
V8:11 AM - 14 Oct 2011
p2021
sa(dp2022
g2
VMy @FoxNews interview on @gretawire discussing "The China Curse"
p2023
sg4
V7:08 AM - 14 Oct 2011
p2024
sa(dp2025
g2
VTweet me your questions to answer. #trumpvlog
p2026
sg4
V2:02 PM - 13 Oct 2011
p2027
sa(dp2028
g2
VTune in tonight to Greta van Susteren's  show, On the Record, which airs on Fox News at 9 p.m.
p2029
sg4
V1:47 PM - 13 Oct 2011
p2030
sa(dp2031
g2
VMitt Romney is right about the Chinese rip-off of America.
p2032
sg4
V11:26 AM - 12 Oct 2011
p2033
sa(dp2034
g2
VThe debate was very interesting last night. There were numerous winners and Governor Romney did very well.
p2035
sg4
V10:49 AM - 12 Oct 2011
p2036
sa(dp2037
g2
VWhen will @BarackObama release an actual budget?
p2038
sg4
V12:30 PM - 11 Oct 2011
p2039
sa(dp2040
g2
VI don't want to be the only billionaire in America---I want all Americans to be rich.
p2041
sg4
V11:31 AM - 11 Oct 2011
p2042
sa(dp2043
g2
VIf the Prez wants to create jobs talk to some business people---not liberal intellectuals.
p2044
sg4
V10:44 AM - 11 Oct 2011
p2045
sa(dp2046
g2
VThe only way to spread economic growth is to lower taxes and end unfriendly regulatory practices.
p2047
sg4
V10:15 AM - 11 Oct 2011
p2048
sa(dp2049
g2
VThe Fed's reckless monetary policy is going to create record inflation.
p2050
sg4
V8:33 AM - 11 Oct 2011
p2051
sa(dp2052
g2
VNew study shows 80% of Congress have no business experience--it shows!
p2053
sg4
V7:30 AM - 11 Oct 2011
p2054
sa(dp2055
g2
VA guy named @BobBeckel on FOX, their resident liberal, was not born with much of a brain.
p2056
sg4
V7:06 AM - 11 Oct 2011
p2057
sa(dp2058
g2
VI have traveled the world. America is the most beautiful country on Earth.
p2059
sg4
V1:08 PM - 7 Oct 2011
p2060
sa(dp2061
g2
VThe only job @BarackObama cares about is his own. Everything he does is for his own reelection.
p2062
sg4
V12:52 PM - 7 Oct 2011
p2063
sa(dp2064
g2
VWhen will we stop wasting our money on rebuilding Afghanistan? We must rebuild our country first.
p2065
sg4
V12:43 PM - 7 Oct 2011
p2066
sa(dp2067
g2
VThe GOP primary schedule is a disaster. Not enough time.
p2068
sg4
V12:38 PM - 7 Oct 2011
p2069
sa(dp2070
g2
VA-Rod is a less than average baseball player now that he is unable to use drugs. A-Rod misrepresented to th\u2026 (cont) http://deck.ly/~1qEbC 
p2071
sg4
V12:25 PM - 7 Oct 2011
p2072
sa(dp2073
g2
V@BarackObama is trying to pass another stimulus after the first was a complete failure. Does he really believe we are that stupid?
p2074
sg4
V12:21 PM - 7 Oct 2011
p2075
sa(dp2076
g2
VWhy is the UN condemning @Israel and doing nothing about Syria? What a disgrace.
p2077
sg4
V10:07 AM - 6 Oct 2011
p2078
sa(dp2079
g2
VIn order to save Medicare and stop record premium increases--we must repeal ObamaCare.
p2080
sg4
V8:44 AM - 6 Oct 2011
p2081
sa(dp2082
g2
VWashington is wasting over $2 billion this year on Solyndra type loans. Yet they want to cut military spending.
p2083
sg4
V7:32 AM - 6 Oct 2011
p2084
sa(dp2085
g2
VChina is threatening Washington over the currency bill.  We should pass it immediately.
p2086
sg4
V6:49 AM - 6 Oct 2011
p2087
sa(dp2088
g2
V@BarackObama sold guns to the Mexican drug cartels.  They were used in the murders of Americans . Where is the outrage?
p2089
sg4
V9:11 AM - 5 Oct 2011
p2090
sa(dp2091
g2
V@BarackObama now says  that he is an "underdog in 2012." America should be so lucky. We still need a solid candidate.
p2092
sg4
V8:04 AM - 5 Oct 2011
p2093
sa(dp2094
g2
VOur national debt has grown by 30% and a gallon of gas has doubled so far under @BarackObama. He is a disaster.
p2095
sg4
V12:05 PM - 4 Oct 2011
p2096
sa(dp2097
g2
VThe Democrats in the Super Committee want to raise taxes first in deficit talks. Huge mistake. Cut wasteful spending first.
p2098
sg4
V11:29 AM - 4 Oct 2011
p2099
sa(dp2100
g2
V@BarackObama released documents late last Friday proving his administration was directly involved in sellin\u2026 (cont) http://deck.ly/~7Vthe 
p2101
sg4
V10:54 AM - 4 Oct 2011
p2102
sa(dp2103
g2
VGreat meeting with @THEHermanCain yesterday in Trump Tower. Great guy!
p2104
sg4
V9:13 AM - 4 Oct 2011
p2105
sa(dp2106
g2
VLooking forward to visiting the Trump Vineyard Estates today in Charlottesville, VA, for a press conference and the grand opening.
p2107
sg4
V8:13 AM - 4 Oct 2011
p2108
sa(dp2109
g2
VGreat article in @torontodotcom - "@DonaldJTrumpJr: the original apprentice"  http://bit.ly/rberx5 
p2110
sg4
V7:36 AM - 4 Oct 2011
p2111
sa(dp2112
g2
VI was on  CNN last night with @ErinBurnett.
p2113
sg4
V7:32 AM - 4 Oct 2011
p2114
sa(dp2115
g2
VWatch my interview with Greta Van Susteren @Gretawire tonight at 10 p.m. on Fox News.
p2116
sg4
V1:38 PM - 3 Oct 2011
p2117
sa(dp2118
g2
VIt's about time Italy recognized the innocence of @AmandaKnox---great news!
p2119
sg4
V12:56 PM - 3 Oct 2011
p2120
sa(dp2121
g2
VLooking forward to speaking at #sparknb next week in Atlantic Canada--my first time ever.
p2122
sg4
V11:32 AM - 3 Oct 2011
p2123
sa(dp2124
g2
VMy book, Midas Touch, with Robert Kiyosaki (Rich Dad, Poor Dad) will be in bookstores tomorrow--it's a grea\u2026 (cont) http://deck.ly/~vkQh7 
p2125
sg4
V10:54 AM - 3 Oct 2011
p2126
sa(dp2127
g2
V@THeCelebrityApprentice  cast is set---the best we've ever had. Shooting starts in 2 weeks---airs  in February.
p2128
sg4
V8:34 AM - 3 Oct 2011
p2129
sa(dp2130
g2
V@USGovernment has done nothing to help @AmandaKnox.
p2131
sg4
V7:44 AM - 3 Oct 2011
p2132
sa(dp2133
g2
VThe banks were bailed out by us. They should start lending to private entrepreneurs. The banks are slowing American growth.
p2134
sg4
V12:14 PM - 29 Nov 2011
p2135
sa(dp2136
g2
VWhy does @BarackObama support the radical Islamists in Egypt protests yet has such a high disregard for the Tea Party?
p2137
sg4
V11:44 AM - 28 Nov 2011
p2138
sa(dp2139
g2
VWhy are we giving China foreign aid? Couldn't the Super Committee have agreed to at least cut that outlay? #TimeToGetTough
p2140
sg4
V1:15 PM - 22 Nov 2011
p2141
sa(dp2142
g2
VThe habitual vacationer--@BarackObama--spent 9 days before the critical Super Committee deadline traveling.  He failed to lead, again.
p2143
sg4
V12:12 PM - 22 Nov 2011
p2144
sa(dp2145
g2
VYesterday @BarackObama actually spent a full day in Washington. He didn't campaign, fund raise or play golf. Shocking.
p2146
sg4
V9:09 AM - 22 Nov 2011
p2147
sa(dp2148
g2
VThe unemployment numbers released later this week will show no job growth.  We must start making our own products again. #TimeToGetTough.
p2149
sg4
V11:50 AM - 30 Nov 2011
p2150
sa(dp2151
g2
VNewly released emails prove that scientists have manipulated data on global warming. The data is unreliable.
p2152
sg4
V10:25 AM - 30 Nov 2011
p2153
sa(dp2154
g2
VThe habitual vacationer: @BarackObama has campaigned on our dime more than any previous president in history\u2026 (cont) http://deck.ly/~szszJ 
p2155
sg4
V6:44 AM - 30 Nov 2011
p2156
sa(dp2157
g2
V#trumpvlog @BarackObama is very inconsiderate...
p2158
sg4
V1:22 PM - 29 Nov 2011
p2159
sa(dp2160
g2
VAmerica's trade deficit with China is one of our greatest national security threats.  Time for Fair Trade. We must produce our own products.
p2161
sg4
V1:03 PM - 29 Nov 2011
p2162
sa(dp2163
g2
VIn order to get elected, @BarackObama will start a war with Iran.
p2164
sg4
V11:48 AM - 29 Nov 2011
p2165
sa(dp2166
g2
VThe CBO has confirmed that @BarackObama's stimulus "crowds out" private investment while not creating any jobs.  http://bit.ly/tvvOZ1 
p2167
sg4
V10:51 AM - 29 Nov 2011
p2168
sa(dp2169
g2
VReal unemployment is at over 21%. Businesses won't hire until @BarackObama is defeated in 2012. #TimeToGetTough
p2170
sg4
V9:51 AM - 29 Nov 2011
p2171
sa(dp2172
g2
VThird quarter GDP was lowered to 2% . There won't be any economic recovery until @BarackObama is defeated.
p2173
sg4
V12:45 PM - 28 Nov 2011
p2174
sa(dp2175
g2
VOnce Iran has nuclear weapons, they will shut down the Strait of Hormuz.  Oil will be over $300/Barrel. Iran'\u2026 (cont) http://deck.ly/~HK7P0 
p2176
sg4
V8:03 AM - 28 Nov 2011
p2177
sa(dp2178
g2
VThe failure of the "Super Committee" shows Washington has truly incompetent leaders. #TimeToGetTough
p2179
sg4
V7:21 AM - 28 Nov 2011
p2180
sa(dp2181
g2
VObamaCare does indeed ration care. Seniors are now restricted to "comfort care" instead of brain surgery. Repeal now!
p2182
sg4
V6:13 AM - 28 Nov 2011
p2183
sa(dp2184
g2
VI dictate my tweets to my executive assistant and she posts them. "Time is money"---The Art of the Deal.
p2185
sg4
V6:01 AM - 23 Nov 2011
p2186
sa(dp2187
g2
VEgypt is turning into a hot bed of radical Islam. The current protest is another coup attempt.  We should never have abandoned Mubarak.
p2188
sg4
V1:58 PM - 21 Nov 2011
p2189
sa(dp2190
g2
VIf @BarackObama wanted the "Super Committee" to succeed, he would have lead. Instead he has been campaigning. Where is the leadership?
p2191
sg4
V8:24 AM - 21 Nov 2011
p2192
sa(dp2193
g2
VRegardless of the USC's ruling, ObamaCare can only be defeated politically. It must be legislatively repealed or America will go bankrupt.
p2194
sg4
V6:57 AM - 18 Nov 2011
p2195
sa(dp2196
g2
VChina is complaining about 2,500 marines being placed in Australia.  Meanwhile they are building bases across Latin America. #TimeToGetTough
p2197
sg4
V12:51 PM - 17 Nov 2011
p2198
sa(dp2199
g2
VThe stimulus "is a net negative effect on the growth of GDP over 10 years" --as admitted by @BarackObama's own CBO
p2200
sg4
V12:17 PM - 17 Nov 2011
p2201
sa(dp2202
g2
VThe Federal deficit crossed $15Trillion, 100% of our GDP. Yet the Super Committee can't find $1.2Trillion i\u2026 (cont) http://deck.ly/~XM3t3 
p2203
sg4
V10:51 AM - 17 Nov 2011
p2204
sa(dp2205
g2
VThe Federal government  has increased its employment by 12% since 2007. We need to stop replacing retired workers unless position is needed.
p2206
sg4
V9:11 AM - 17 Nov 2011
p2207
sa(dp2208
g2
VCrude is at $100/Barrel. With the current state of the world economy, how is that possible? OPEC is ripping of\u2026 (cont) http://deck.ly/~R50sk 
p2209
sg4
V12:50 PM - 16 Nov 2011
p2210
sa(dp2211
g2
VIn the span of two months @BarackObama, the habitual vacationer, has called America "soft" and lazy." He loves to criticize America.
p2212
sg4
V11:50 AM - 16 Nov 2011
p2213
sa(dp2214
g2
VMy new book,  Time To Get Tough,  comes out  on December 5th. Pre-order on Amazon.com. It's the best book I've ever written.
p2215
sg4
V6:46 AM - 16 Nov 2011
p2216
sa(dp2217
g2
V\u201cWhen mistakes are made, and they will be, the entrepreneur\u2019s true character emerges and further growth takes place.\u201d \u2013 The Midas Touch.
p2218
sg4
V4:18 PM - 15 Nov 2011
p2219
sa(dp2220
g2
VFewer Americans are now insured through their employers due to higher premiums. Obamacare must be fully repealed.
p2221
sg4
V2:34 PM - 14 Nov 2011
p2222
sa(dp2223
g2
VAmericans who can afford to buy enough food is now at a 3 year low. Is this @BarackObama\u2019s \u2018recovery\u2019?
p2224
sg4
V1:52 PM - 14 Nov 2011
p2225
sa(dp2226
g2
VOctober has a 7% foreclosure increase last month. Is this @BarackObama\u2019s economic recovery?
p2227
sg4
V12:24 PM - 11 Nov 2011
p2228
sa(dp2229
g2
V2012 is the most important election of my lifetime. @BarackObama must be defeated.
p2230
sg4
V12:08 PM - 11 Nov 2011
p2231
sa(dp2232
g2
VTo the brave men and women, past and present, in our armed services- best wishes on Veterans Day.
p2233
sg4
V11:48 AM - 11 Nov 2011
p2234
sa(dp2235
g2
VThe Arab Spring has turned into the Islamist Winter.  Our ally @Israel is in a perilous position.  We must stand behind @Israel.
p2236
sg4
V11:31 AM - 11 Nov 2011
p2237
sa(dp2238
g2
VMy thoughts on Joe Paterno and political analysts in today's #trumpvlog...
p2239
sg4
V9:29 AM - 11 Nov 2011
p2240
sa(dp2241
g2
VThe death tax should be abolished -- the Government is  simply taxing you twice. It is also a job killer.
p2242
sg4
V1:13 PM - 10 Nov 2011
p2243
sa(dp2244
g2
VSolyndra's government loan and subsequent bankruptcy  prove that @BarackObama is both corrupt and inept.
p2245
sg4
V12:23 PM - 10 Nov 2011
p2246
sa(dp2247
g2
VThe Fed should not bail out the EU.  Europe's financial mess is their problem, not our problem!
p2248
sg4
V11:54 AM - 10 Nov 2011
p2249
sa(dp2250
g2
VRick Perry is a good guy who had a really tough evening.  @RickPerry
p2251
sg4
V9:16 AM - 10 Nov 2011
p2252
sa(dp2253
g2
VMitt Romney did great in the debate last night.
p2254
sg4
V8:21 AM - 10 Nov 2011
p2255
sa(dp2256
g2
VThe Fannie and Freddie execs should not get million dollar bonuses with our tax dollars. They were bailed out with $169B of our money.
p2257
sg4
V7:26 AM - 10 Nov 2011
p2258
sa(dp2259
g2
VHe is out of real solutions--@BarackObama's job bill is nothing more than a tax increase.
p2260
sg4
V11:28 AM - 9 Nov 2011
p2261
sa(dp2262
g2
VInstead of trash talking @PMIsrael on the world stage, @BarackObama should be defending @Israel.
p2263
sg4
V8:04 AM - 9 Nov 2011
p2264
sa(dp2265
g2
VAmerica should not be pressuring @Israel to show restraint against Iran. We should be working to stop Iran's nuclear drive.
p2266
sg4
V7:31 AM - 9 Nov 2011
p2267
sa(dp2268
g2
VSome @OWS protesters are sincere people frustrated with the system--others just in for the party.
p2269
sg4
V6:17 AM - 9 Nov 2011
p2270
sa(dp2271
g2
VOur deficits are caused by runaway spending, not inadequate taxing. Washington does not have a revenue problem.
p2272
sg4
V12:54 PM - 8 Nov 2011
p2273
sa(dp2274
g2
VThe Federal government spent over $3.7 trillion last year. This is unsustainable and a true danger. The American dream is being destroyed.
p2275
sg4
V12:17 PM - 8 Nov 2011
p2276
sa(dp2277
g2
V#timetogettough The White House Correspondents' Dinner in my new book "Time To Get Tough".....watch the #trumpvlog---
p2278
sg4
V11:18 AM - 8 Nov 2011
p2279
sa(dp2280
g2
VA record high 6.7% of Americans are living in extreme poverty. This is tragic.  We can do better.
p2281
sg4
V11:03 AM - 8 Nov 2011
p2282
sa(dp2283
g2
VChina 'scorns'  US cyber espionage charges--China does not respect us  http://reut.rs/vloYTi   and feels Obama is a "dummy"
p2284
sg4
V10:19 AM - 4 Nov 2011
p2285
sa(dp2286
g2
VSee what I have to say about the Occupy Wall Street protestors in today's #trumpvlog....
p2287
sg4
V10:09 AM - 4 Nov 2011
p2288
sa(dp2289
g2
VThe Oil Companies collude with OPEC to keep oil artificially overvalued. They need to be reigned in.
p2290
sg4
V11:57 AM - 2 Nov 2011
p2291
sa(dp2292
g2
VThe greatest threat to our security is our debt. It is already past 100% GDP. We need to make real budget cuts.
p2293
sg4
V11:03 AM - 2 Nov 2011
p2294
sa(dp2295
g2
VThe economy won't fully recover until  @ObamaCare is fully repealed. It is a job killer!
p2296
sg4
V10:05 AM - 2 Nov 2011
p2297
sa(dp2298
g2
VWhy is @BarackObama letting the Taliban know when our troops are leaving? http://reut.rs/uKy8nI   This is dangerous for our soldiers.
p2299
sg4
V7:40 AM - 2 Nov 2011
p2300
sa(dp2301
g2
VThe  @SuperCommittee must cut spending, not raise taxes. Washington has a spending problem, not a revenue problem.
p2302
sg4
V7:11 AM - 2 Nov 2011
p2303
sa(dp2304
g2
VAnother company that the DOE has given money to just filed for bankruptcy. This is how the money we borrow at 40% from China is wasted.
p2305
sg4
V6:09 AM - 2 Nov 2011
p2306
sa(dp2307
g2
VIs Jon Stewart a racist? See video that includes clip... http://youtu.be/5e6n_3Fj7qk  #thedailyshow
p2308
sg4
V2:02 PM - 1 Nov 2011
p2309
sa(dp2310
g2
VThe Republicans never should have agreed to this past summer's debt deal.  Military cuts will now come along with tax increases.
p2311
sg4
V1:45 PM - 1 Nov 2011
p2312
sa(dp2313
g2
VTHe Chinese military is already hacking our satellites http://reut.rs/vFvKYW .   The Chinese government is not an American ally.
p2314
sg4
V1:09 PM - 1 Nov 2011
p2315
sa(dp2316
g2
VIt snowed over 4 inches this past weekend in New York City. It is still October. So much for Global Warming.
p2317
sg4
V12:43 PM - 1 Nov 2011
p2318
sa(dp2319
g2
VFitch has downgraded our credit outlook to "negative." Why? @BarackObama's failure to lead with the Super Committee.
p2320
sg4
V12:56 PM - 30 Nov 2011
p2321
sa(dp2322
g2
VThe unemployment numbers released later this week will show no job growth.  We must start making our own products again. #TimeToGetTough.
p2323
sg4
V11:50 AM - 30 Nov 2011
p2324
sa(dp2325
g2
VChina is so brazen that they now give us economic advice--they tell us  what to do---much like a strong stockh\u2026 (cont) http://deck.ly/~ltB8C 
p2326
sg4
V11:25 AM - 30 Nov 2011
p2327
sa(dp2328
g2
VNewly released emails prove that scientists have manipulated data on global warming. The data is unreliable.
p2329
sg4
V10:25 AM - 30 Nov 2011
p2330
sa(dp2331
g2
VUnbelievable how he gets away with it:  @BarackObama is flying around on Air Force One, laughing at everybod\u2026 (cont) http://deck.ly/~FIdxS 
p2332
sg4
V8:11 AM - 30 Nov 2011
p2333
sa(dp2334
g2
VThe habitual vacationer: @BarackObama has campaigned on our dime more than any previous president in history\u2026 (cont) http://deck.ly/~szszJ 
p2335
sg4
V6:44 AM - 30 Nov 2011
p2336
sa(dp2337
g2
VIt's inconvenient and inconsiderate: @BarackObama is doing a fundraiser tonight, making it almost impossibl\u2026 (cont) http://deck.ly/~bDkB8 
p2338
sg4
V6:13 AM - 30 Nov 2011
p2339
sa(dp2340
g2
V#trumpvlog @BarackObama is very inconsiderate...
p2341
sg4
V1:22 PM - 29 Nov 2011
p2342
sa(dp2343
g2
VAmerica's trade deficit with China is one of our greatest national security threats.  Time for Fair Trade. We must produce our own products.
p2344
sg4
V1:03 PM - 29 Nov 2011
p2345
sa(dp2346
g2
VThe banks were bailed out by us. They should start lending to private entrepreneurs. The banks are slowing American growth.
p2347
sg4
V12:14 PM - 29 Nov 2011
p2348
sa(dp2349
g2
VMy @foxandfriends interview from yesterday
p2350
sg4
V12:06 PM - 29 Nov 2011
p2351
sa(dp2352
g2
VIn order to get elected, @BarackObama will start a war with Iran.
p2353
sg4
V11:48 AM - 29 Nov 2011
p2354
sa(dp2355
g2
VIran's continued public threats of annihilating @Israel are unacceptable. Iran's nuclear drive must be stopped. #TimeToGetTough
p2356
sg4
V11:27 AM - 29 Nov 2011
p2357
sa(dp2358
g2
VThe CBO has confirmed that @BarackObama's stimulus "crowds out" private investment while not creating any jobs.  http://bit.ly/tvvOZ1 
p2359
sg4
V10:51 AM - 29 Nov 2011
p2360
sa(dp2361
g2
VReal unemployment is at over 21%. Businesses won't hire until @BarackObama is defeated in 2012. #TimeToGetTough
p2362
sg4
V9:51 AM - 29 Nov 2011
p2363
sa(dp2364
g2
VMy new book "Time To Get Tough" will be out Dec 5th. Solutions you won't hear from the politicians. The bes\u2026 (cont) http://deck.ly/~EWT5Z 
p2365
sg4
V9:31 AM - 29 Nov 2011
p2366
sa(dp2367
g2
VI will be signing copies of my new book, Time To Get Tough: Making America #1 Again, in Trump Tower on Frida\u2026 (cont) http://deck.ly/~2CpTn 
p2368
sg4
V1:37 PM - 28 Nov 2011
p2369
sa(dp2370
g2
VThird quarter GDP was lowered to 2% . There won't be any economic recovery until @BarackObama is defeated.
p2371
sg4
V12:45 PM - 28 Nov 2011
p2372
sa(dp2373
g2
VWhy does @BarackObama support the radical Islamists in Egypt protests yet has such a high disregard for the Tea Party?
p2374
sg4
V11:44 AM - 28 Nov 2011
p2375
sa(dp2376
g2
VWashington will continue to run record deficits into the election. We are borrowing at a rate of $1.40 from China. Truly unsustainable.
p2377
sg4
V11:31 AM - 28 Nov 2011
p2378
sa(dp2379
g2
VObamaCare does indeed ration care. Seniors are now restricted to "comfort care" instead of brain surgery. Repeal now!
p2380
sg4
V6:13 AM - 28 Nov 2011
p2381
sa(dp2382
g2
VAmerican sanctions alone cannot stop Iran's nuclear drive--and @BarackObama cannot get China and Russia to agree on new Iranian sanctions.
p2383
sg4
V8:22 AM - 23 Nov 2011
p2384
sa(dp2385
g2
VIn my new book #TimeToGetTough I make a full financial disclosure detailing my net worth.
p2386
sg4
V7:05 AM - 23 Nov 2011
p2387
sa(dp2388
g2
VCongratulations to @TrumpChicago, @TrumpSoHo and @TrumpLasVegas --all listed #1 on @TravelandLeisure World's Best Business Hotels
p2389
sg4
V6:10 AM - 23 Nov 2011
p2390
sa(dp2391
g2
VI dictate my tweets to my executive assistant and she posts them. "Time is money"---The Art of the Deal.
p2392
sg4
V6:01 AM - 23 Nov 2011
p2393
sa(dp2394
g2
VWhy are we giving China foreign aid? Couldn't the Super Committee have agreed to at least cut that outlay? #TimeToGetTough
p2395
sg4
V1:15 PM - 22 Nov 2011
p2396
sa(dp2397
g2
VThe habitual vacationer--@BarackObama--spent 9 days before the critical Super Committee deadline traveling.  He failed to lead, again.
p2398
sg4
V12:12 PM - 22 Nov 2011
p2399
sa(dp2400
g2
VAs of September 30th, we have a record trade deficit with China of over $217Billion. They are ripping us off.  #TimeToGetTough
p2401
sg4
V11:08 AM - 22 Nov 2011
p2402
sa(dp2403
g2
VYesterday @BarackObama actually spent a full day in Washington. He didn't campaign, fund raise or play golf. Shocking.
p2404
sg4
V9:09 AM - 22 Nov 2011
p2405
sa(dp2406
g2
VMy  new book #TimeToGetTough -- out Dec 5th -- outlines how to make America rich again. Order now through Amazon
p2407
sg4
V8:13 AM - 22 Nov 2011
p2408
sa(dp2409
g2
VMy  @foxandfriends interview from yesterday discussing how @BarackObama failed to show any leadership on th\u2026 (cont) http://deck.ly/~Bvqxu 
p2410
sg4
V7:58 AM - 22 Nov 2011
p2411
sa(dp2412
g2
VEgypt is turning into a hot bed of radical Islam. The current protest is another coup attempt.  We should never have abandoned Mubarak.
p2413
sg4
V1:58 PM - 21 Nov 2011
p2414
sa(dp2415
g2
VThe House's failure to pass the Balance Budget Amendment was another unforced error by the GOP. Very disappointing.
p2416
sg4
V1:03 PM - 21 Nov 2011
p2417
sa(dp2418
g2
VWhen the Super Committee fails, @BarackObama will get exactly what he really wants--automatic cuts in defense spending. This is his plan.
p2419
sg4
V11:53 AM - 21 Nov 2011
p2420
sa(dp2421
g2
VIf @BarackObama wanted the "Super Committee" to succeed, he would have lead. Instead he has been campaigning. Where is the leadership?
p2422
sg4
V8:24 AM - 21 Nov 2011
p2423
sa(dp2424
g2
VChina's economy is now projected to overtake the US as the world's largest economy by 2027 http://tgr.ph/uSvGQ4    #TimeToGetTough
p2425
sg4
V7:36 AM - 21 Nov 2011
p2426
sa(dp2427
g2
VThe Super Committee is finding ways to raise all our taxes without admitting it. The Republicans made a big mistake agreeing to this deal.
p2428
sg4
V6:20 AM - 21 Nov 2011
p2429
sa(dp2430
g2
VObamaCare is one of the greatest threats our country faces.  It is unsustainable and will lead America into complete insolvency.
p2431
sg4
V1:18 PM - 18 Nov 2011
p2432
sa(dp2433
g2
V@TheDailyShow @Lawrence Panama is not a Trump development. We only manage it after it is built. They also licensed the name.
p2434
sg4
V1:10 PM - 18 Nov 2011
p2435
sa(dp2436
g2
VWhy is @BarackObama delaying the sale of F-16 aircraft to Taiwan? Wrong message to send to China. #TimeToGetTough
p2437
sg4
V12:34 PM - 18 Nov 2011
p2438
sa(dp2439
g2
VThere was no need for violence at the OWS protests. Some are looking to  make trouble. Time to go home.
p2440
sg4
V12:03 PM - 18 Nov 2011
p2441
sa(dp2442
g2
VMy wife Melania's interview with @JoyVBehar from last night  http://bit.ly/rYBK9j 
p2443
sg4
V11:27 AM - 18 Nov 2011
p2444
sa(dp2445
g2
VWashington is simply incapable of any moderation because @BarackObama is such an extreme leftist.  He must be defeated. #TImeToGetTough.
p2446
sg4
V10:34 AM - 18 Nov 2011
p2447
sa(dp2448
g2
VElena Kagan recused herself from 25 cases in the USC's last term. She should not adjudicate ObamaCare. Her 200\u2026 (cont) http://deck.ly/~GG9aJ 
p2449
sg4
V8:54 AM - 18 Nov 2011
p2450
sa(dp2451
g2
VMade in America? @BarackObama called his 'birthplace'  Hawaii  "here in Asia."
p2452
sg4
V7:54 AM - 18 Nov 2011
p2453
sa(dp2454
g2
VRegardless of the USC's ruling, ObamaCare can only be defeated politically. It must be legislatively repealed or America will go bankrupt.
p2455
sg4
V6:57 AM - 18 Nov 2011
p2456
sa(dp2457
g2
VWhile alternative energy is vital for America's future, the volatility of the industry shows that the technolo\u2026 (cont) http://deck.ly/~cR98M 
p2458
sg4
V5:49 AM - 18 Nov 2011
p2459
sa(dp2460
g2
VChina is complaining about 2,500 marines being placed in Australia.  Meanwhile they are building bases across Latin America. #TimeToGetTough
p2461
sg4
V12:51 PM - 17 Nov 2011
p2462
sa(dp2463
g2
VThe stimulus "is a net negative effect on the growth of GDP over 10 years" --as admitted by @BarackObama's own CBO
p2464
sg4
V12:17 PM - 17 Nov 2011
p2465
sa(dp2466
g2
V@Israel faces an existential threat in Iran's nuclear drive. Unfortunately @BarackObama is no friend of Israel.
p2467
sg4
V11:51 AM - 17 Nov 2011
p2468
sa(dp2469
g2
VThe Federal deficit crossed $15Trillion, 100% of our GDP. Yet the Super Committee can't find $1.2Trillion i\u2026 (cont) http://deck.ly/~XM3t3 
p2470
sg4
V10:51 AM - 17 Nov 2011
p2471
sa(dp2472
g2
VCrude has skyrocketed since @BarackObama delayed the Keystone Pipeline. Not only are 20,000 jobs gone, but family budgets are tightening.
p2473
sg4
V9:48 AM - 17 Nov 2011
p2474
sa(dp2475
g2
VThe Federal government  has increased its employment by 12% since 2007. We need to stop replacing retired workers unless position is needed.
p2476
sg4
V9:11 AM - 17 Nov 2011
p2477
sa(dp2478
g2
VCrude is at $100/Barrel. With the current state of the world economy, how is that possible? OPEC is ripping of\u2026 (cont) http://deck.ly/~R50sk 
p2479
sg4
V12:50 PM - 16 Nov 2011
p2480
sa(dp2481
g2
V#trumpvlog @BarackObama will attack Iran....
p2482
sg4
V12:47 PM - 16 Nov 2011
p2483
sa(dp2484
g2
VIn the span of two months @BarackObama, the habitual vacationer, has called America "soft" and lazy." He loves to criticize America.
p2485
sg4
V11:50 AM - 16 Nov 2011
p2486
sa(dp2487
g2
VIraq's Army Chief of Staff is already seeking "Stronger" Ties with Iran. Once we leave, Iran will take over Iraq.
p2488
sg4
V11:17 AM - 16 Nov 2011
p2489
sa(dp2490
g2
V@BarackObama is obviously going to approve the Keystone pipeline after the election if he wins. His supporters are being played.
p2491
sg4
V10:49 AM - 16 Nov 2011
p2492
sa(dp2493
g2
VForbes Travel Guide has unveiled its 54th annual listing of Five  and Four-Star hotels, restaurants and spas\u2026 (cont) http://deck.ly/~ESaTc 
p2494
sg4
V9:29 AM - 16 Nov 2011
p2495
sa(dp2496
g2
VMy @FoxNews interview with @gretawire discussing "Habitual Vacationer" @BarackObama, the economy and the GOP
p2497
sg4
V8:56 AM - 16 Nov 2011
p2498
sa(dp2499
g2
VTune in this Thursday morning at 6 AM EST and 8 PM EST to QVC to watch Melania Trump introducing her new colle\u2026 (cont) http://deck.ly/~yOFwI 
p2500
sg4
V8:25 AM - 16 Nov 2011
p2501
sa(dp2502
g2
VMy @CNBC interview from this morning on @SquawkCNBC discussing energy policy with @boonepickens and the GOP primary
p2503
sg4
V7:18 AM - 16 Nov 2011
p2504
sa(dp2505
g2
VMy new book,  Time To Get Tough,  comes out  on December 5th. Pre-order on Amazon.com. It's the best book I've ever written.
p2506
sg4
V6:46 AM - 16 Nov 2011
p2507
sa(dp2508
g2
V\u201cWhen mistakes are made, and they will be, the entrepreneur\u2019s true character emerges and further growth takes place.\u201d \u2013 The Midas Touch.
p2509
sg4
V4:18 PM - 15 Nov 2011
p2510
sa(dp2511
g2
VWaterboarding KSM gave us the intelligence that lead to Bin Laden.
p2512
sg4
V1:27 PM - 15 Nov 2011
p2513
sa(dp2514
g2
VReporter should resign---- http://bit.ly/rSOPxI 
p2515
sg4
V1:26 PM - 15 Nov 2011
p2516
sa(dp2517
g2
V@BarackObama has increased the EPA budget by over 150%.  The EPA is an impediment to both growth and jobs.  It sends jobs overseas.
p2518
sg4
V12:45 PM - 15 Nov 2011
p2519
sa(dp2520
g2
VThe Supercommittee is a disaster. The Republicans made a crucial mistake agreeing to this debt deal. They hat\u2026 (cont) http://deck.ly/~5Z6eF 
p2521
sg4
V11:24 AM - 15 Nov 2011
p2522
sa(dp2523
g2
VMy interview yesterday with @foxandfriends discussing the failure of the Super Committee and GOP 2012.... http://bit.ly/rsPurs 
p2524
sg4
V9:20 AM - 15 Nov 2011
p2525
sa(dp2526
g2
V@BarackObama has already added $5 Trillion to the national debt in less than 3 years. We must defeat him in 2012. #TimeToGetTough
p2527
sg4
V9:02 AM - 15 Nov 2011
p2528
sa(dp2529
g2
VFewer Americans are now insured through their employers due to higher premiums. Obamacare must be fully repealed.
p2530
sg4
V2:34 PM - 14 Nov 2011
p2531
sa(dp2532
g2
V@BarackObama delayed the Keystone pipeline decision until 2013. Now Canada is looking to export more oil to China. http://bit.ly/uCGpeC 
p2533
sg4
V1:55 PM - 14 Nov 2011
p2534
sa(dp2535
g2
VAmericans who can afford to buy enough food is now at a 3 year low. Is this @BarackObama\u2019s \u2018recovery\u2019?
p2536
sg4
V1:52 PM - 14 Nov 2011
p2537
sa(dp2538
g2
V@BarackObama, the habitual vacationer, called America "lazy" this past weekend while in Hawaii.
p2539
sg4
V12:19 PM - 14 Nov 2011
p2540
sa(dp2541
g2
V@BarackObama will attack Iran in the not too distant future because it will help him win the election. If the\u2026 (cont) http://deck.ly/~RSKCl 
p2542
sg4
V12:03 PM - 14 Nov 2011
p2543
sa(dp2544
g2
VWatch What's America Worth?, hosted and narrated by me, this Sunday at 9PM on @Discovery http://bit.ly/u2l8bR 
p2545
sg4
V12:40 PM - 11 Nov 2011
p2546
sa(dp2547
g2
V@BarackObama made a campaign decision on delaying the Keystone Pipeline to 2013.The pipeline would lower oil prices and create jobs.
p2548
sg4
V12:37 PM - 11 Nov 2011
p2549
sa(dp2550
g2
VOctober has a 7% foreclosure increase last month. Is this @BarackObama\u2019s economic recovery?
p2551
sg4
V12:24 PM - 11 Nov 2011
p2552
sa(dp2553
g2
V2012 is the most important election of my lifetime. @BarackObama must be defeated.
p2554
sg4
V12:08 PM - 11 Nov 2011
p2555
sa(dp2556
g2
VTo the brave men and women, past and present, in our armed services- best wishes on Veterans Day.
p2557
sg4
V11:48 AM - 11 Nov 2011
p2558
sa(dp2559
g2
VThe Arab Spring has turned into the Islamist Winter.  Our ally @Israel is in a perilous position.  We must stand behind @Israel.
p2560
sg4
V11:31 AM - 11 Nov 2011
p2561
sa(dp2562
g2
VMy interview with @IngrahamAngle discussing @THEHermanCain, @BarackObama's mistreatment of Israel and GOP 2012. http://bit.ly/berpv9 
p2563
sg4
V9:45 AM - 11 Nov 2011
p2564
sa(dp2565
g2
VMy thoughts on Joe Paterno and political analysts in today's #trumpvlog...
p2566
sg4
V9:29 AM - 11 Nov 2011
p2567
sa(dp2568
g2
VThe death tax should be abolished -- the Government is  simply taxing you twice. It is also a job killer.
p2569
sg4
V1:13 PM - 10 Nov 2011
p2570
sa(dp2571
g2
VThe Debate, @BarackObama's mic, and my Endorsement in today's #trumpvlog---
p2572
sg4
V12:36 PM - 10 Nov 2011
p2573
sa(dp2574
g2
VSolyndra's government loan and subsequent bankruptcy  prove that @BarackObama is both corrupt and inept.
p2575
sg4
V12:23 PM - 10 Nov 2011
p2576
sa(dp2577
g2
VThe Fed should not bail out the EU.  Europe's financial mess is their problem, not our problem!
p2578
sg4
V11:54 AM - 10 Nov 2011
p2579
sa(dp2580
g2
VHerman Cain handled the pressure of the debate really well.  @THEHermancain
p2581
sg4
V10:28 AM - 10 Nov 2011
p2582
sa(dp2583
g2
VRick Perry is a good guy who had a really tough evening.  @RickPerry
p2584
sg4
V9:16 AM - 10 Nov 2011
p2585
sa(dp2586
g2
VMitt Romney did great in the debate last night.
p2587
sg4
V8:21 AM - 10 Nov 2011
p2588
sa(dp2589
g2
VThe Fannie and Freddie execs should not get million dollar bonuses with our tax dollars. They were bailed out with $169B of our money.
p2590
sg4
V7:26 AM - 10 Nov 2011
p2591
sa(dp2592
g2
VChina is advocating on behalf of Iran's nuclear program -- the Chinese oppose both sanctions and any militar\u2026 (cont) http://deck.ly/~BlGDb 
p2593
sg4
V6:33 AM - 10 Nov 2011
p2594
sa(dp2595
g2
VHe is out of real solutions--@BarackObama's job bill is nothing more than a tax increase.
p2596
sg4
V11:28 AM - 9 Nov 2011
p2597
sa(dp2598
g2
VThe @SuperCommittee will fail. The Republicans never should have agreed to the debt deal.
p2599
sg4
V10:39 AM - 9 Nov 2011
p2600
sa(dp2601
g2
VInstead of trash talking @PMIsrael on the world stage, @BarackObama should be defending @Israel.
p2602
sg4
V8:04 AM - 9 Nov 2011
p2603
sa(dp2604
g2
VAmerica should not be pressuring @Israel to show restraint against Iran. We should be working to stop Iran's nuclear drive.
p2605
sg4
V7:31 AM - 9 Nov 2011
p2606
sa(dp2607
g2
VSome @OWS protesters are sincere people frustrated with the system--others just in for the party.
p2608
sg4
V6:17 AM - 9 Nov 2011
p2609
sa(dp2610
g2
VOur deficits are caused by runaway spending, not inadequate taxing. Washington does not have a revenue problem.
p2611
sg4
V12:54 PM - 8 Nov 2011
p2612
sa(dp2613
g2
VThe Federal government spent over $3.7 trillion last year. This is unsustainable and a true danger. The American dream is being destroyed.
p2614
sg4
V12:17 PM - 8 Nov 2011
p2615
sa(dp2616
g2
V#timetogettough The White House Correspondents' Dinner in my new book "Time To Get Tough".....watch the #trumpvlog---
p2617
sg4
V11:18 AM - 8 Nov 2011
p2618
sa(dp2619
g2
VA record high 6.7% of Americans are living in extreme poverty. This is tragic.  We can do better.
p2620
sg4
V11:03 AM - 8 Nov 2011
p2621
sa(dp2622
g2
VReporter @AlHunt is one boring and low vision guy!
p2623
sg4
V10:31 AM - 8 Nov 2011
p2624
sa(dp2625
g2
VChina 'scorns'  US cyber espionage charges--China does not respect us  http://reut.rs/vloYTi   and feels Obama is a "dummy"
p2626
sg4
V10:19 AM - 4 Nov 2011
p2627
sa(dp2628
g2
VSee what I have to say about the Occupy Wall Street protestors in today's #trumpvlog....
p2629
sg4
V10:09 AM - 4 Nov 2011
p2630
sa(dp2631
g2
VIran's quest for nuclear weapons is a major threat to our nation's national security interests. We can't allow Iran to go nuclear.
p2632
sg4
V9:34 AM - 4 Nov 2011
p2633
sa(dp2634
g2
VMalfeasance at Fannie Mae and Freddie Mac helped cause our current financial meltdown.
p2635
sg4
V8:26 AM - 4 Nov 2011
p2636
sa(dp2637
g2
VMy interview on @gretawire discussing the economy and @TheHermanCain "Witch Hunt"
p2638
sg4
V7:37 AM - 4 Nov 2011
p2639
sa(dp2640
g2
VWatch my interview with Greta Van Susteren @gretawire tonight on Fox News at 10 p.m.
p2641
sg4
V2:22 PM - 2 Nov 2011
p2642
sa(dp2643
g2
VThe Oil Companies collude with OPEC to keep oil artificially overvalued. They need to be reigned in.
p2644
sg4
V11:57 AM - 2 Nov 2011
p2645
sa(dp2646
g2
VThe greatest threat to our security is our debt. It is already past 100% GDP. We need to make real budget cuts.
p2647
sg4
V11:03 AM - 2 Nov 2011
p2648
sa(dp2649
g2
VThe economy won't fully recover until  @ObamaCare is fully repealed. It is a job killer!
p2650
sg4
V10:05 AM - 2 Nov 2011
p2651
sa(dp2652
g2
VEgypt's Muslim Brotherhood just made its first visit to Hamas-led Gaza. Why did @BarackObama promote the "Arab Spring"?
p2653
sg4
V8:46 AM - 2 Nov 2011
p2654
sa(dp2655
g2
VWhy is @BarackObama letting the Taliban know when our troops are leaving? http://reut.rs/uKy8nI   This is dangerous for our soldiers.
p2656
sg4
V7:40 AM - 2 Nov 2011
p2657
sa(dp2658
g2
VThe  @SuperCommittee must cut spending, not raise taxes. Washington has a spending problem, not a revenue problem.
p2659
sg4
V7:11 AM - 2 Nov 2011
p2660
sa(dp2661
g2
VAnother company that the DOE has given money to just filed for bankruptcy. This is how the money we borrow at 40% from China is wasted.
p2662
sg4
V6:09 AM - 2 Nov 2011
p2663
sa(dp2664
g2
VIs Jon Stewart a racist? See video that includes clip... http://youtu.be/5e6n_3Fj7qk  #thedailyshow
p2665
sg4
V2:02 PM - 1 Nov 2011
p2666
sa(dp2667
g2
VThe Republicans never should have agreed to this past summer's debt deal.  Military cuts will now come along with tax increases.
p2668
sg4
V1:45 PM - 1 Nov 2011
p2669
sa(dp2670
g2
VTHe Chinese military is already hacking our satellites http://reut.rs/vFvKYW .   The Chinese government is not an American ally.
p2671
sg4
V1:09 PM - 1 Nov 2011
p2672
sa(dp2673
g2
VIt snowed over 4 inches this past weekend in New York City. It is still October. So much for Global Warming.
p2674
sg4
V12:43 PM - 1 Nov 2011
p2675
sa(dp2676
g2
VWhen will the US government finally classify China as a currency manipulator? China is robbing us blind and @BarackObama defends them.
p2677
sg4
V10:47 AM - 30 Dec 2011
p2678
sa(dp2679
g2
VI play golf to relax. My company is in great shape. @BarackObama plays golf to escape work while America goes down the drain.
p2680
sg4
V10:12 AM - 30 Dec 2011
p2681
sa(dp2682
g2
VI like Russell Brand, but Katy Perry made a big mistake when she married him. Let's see if I'm right---I hope not.
p2683
sg4
V12:44 PM - 29 Dec 2011
p2684
sa(dp2685
g2
VThe habitual vacationer, @BarackObama, is now in Hawaii. This vacation is costing taxpayers $4 milion +++  while there is 20% unemployment.
p2686
sg4
V11:08 AM - 27 Dec 2011
p2687
sa(dp2688
g2
VIn order to preserve my options and guarantee that @BarackObama is defeated, I changed my voter registration to independent.
p2689
sg4
V10:45 AM - 27 Dec 2011
p2690
sa(dp2691
g2
VThe Washington Establishment will never rein in government spending, waste, fraud and abuse. A great thinker and outsider is needed.
p2692
sg4
V11:03 AM - 30 Dec 2011
p2693
sa(dp2694
g2
VNYC should hold a parade for returning Iraq and Afghanistan veterans.
p2695
sg4
V9:57 AM - 30 Dec 2011
p2696
sa(dp2697
g2
VAmerica wasted billions and precious lives in Iraq and Iran will soon take control--very very sad.
p2698
sg4
V12:26 PM - 29 Dec 2011
p2699
sa(dp2700
g2
VHe is destroying our country:@BarackObama has requested to raise our debt limit to over $16.4Trillion by the end (cont) http://tl.gd/f0fcuh 
p2701
sg4
V12:13 PM - 28 Dec 2011
p2702
sa(dp2703
g2
V"It's important that we help poor people to become independent, self-sufficient individuals who gain the benefits of work." #TimeToGetTough
p2704
sg4
V11:11 AM - 28 Dec 2011
p2705
sa(dp2706
g2
VChina has 5 oil projects in Iraq and we didn't get anything from the Iraqis except asked to leave. Iraq is going (cont) http://tl.gd/f0ec7f 
p2707
sg4
V10:43 AM - 28 Dec 2011
p2708
sa(dp2709
g2
VWhat a convenient mistake: @BarackObama issued a statement for Kwanza but failed to issue one for Christmas.
p2710
sg4
V8:02 AM - 28 Dec 2011
p2711
sa(dp2712
g2
VChina is expanding its military bases abroad. We must expand our naval fleet. Now is no time for defense cuts. (cont) http://tl.gd/evprp9 
p2713
sg4
V1:27 PM - 27 Dec 2011
p2714
sa(dp2715
g2
VChina hacked the U.S. Chamber of Commerce and now has the information of all 3 million members. China keeps (cont) http://tl.gd/evpm0i 
p2716
sg4
V1:06 PM - 27 Dec 2011
p2717
sa(dp2718
g2
VThe Keystone pipeline will create 20,000 jobs and lower gas prices. But Obama says No. Dumb.
p2719
sg4
V12:53 PM - 27 Dec 2011
p2720
sa(dp2721
g2
VGovt. collapsing in Iraq only 2 weeks after withdrawal of our troops. Sadly, I called this one and please remember, I alone called it.
p2722
sg4
V11:38 AM - 27 Dec 2011
p2723
sa(dp2724
g2
VThe Keystone pipeline will create 20,000 jobs and make us less energy dependent from the Middle East. @BarackObama says No!
p2725
sg4
V1:25 PM - 22 Dec 2011
p2726
sa(dp2727
g2
VThe safest way to preserve Medicare is with a robust and vibrant economy. We should lower corporate and capital gain taxes immediately.
p2728
sg4
V12:55 PM - 22 Dec 2011
p2729
sa(dp2730
g2
VEven if @BarackObama stays in DC, taxpayers will pay millions for his Hawaii vacation when Americans are struggling http://bit.ly/uaQfLd 
p2731
sg4
V12:34 PM - 22 Dec 2011
p2732
sa(dp2733
g2
V\u201cThe thing about high corporate tax rates is that, in the end, companies aren\u2019t the ones who foot the bill, consumers do.\u201d #TimeToGetTough
p2734
sg4
V12:05 PM - 22 Dec 2011
p2735
sa(dp2736
g2
VThe average family has spent $4,155 this year filling up the car on $3.50/gallon average. Both record highs. (cont) http://tl.gd/er9mbq 
p2737
sg4
V1:11 PM - 20 Dec 2011
p2738
sa(dp2739
g2
VJoe Biden said that the Taliban 'is not our enemy.' I wonder how our troops in Afghanistant that are under attack view Biden's statement.
p2740
sg4
V12:44 PM - 20 Dec 2011
p2741
sa(dp2742
g2
VWhat a shock! The U.S. Capitol Christmas tree pays homage @BarackObama but failed to mention Jesus.
p2743
sg4
V12:12 PM - 20 Dec 2011
p2744
sa(dp2745
g2
VHe thinks that the wealth you create belongs to the gov't. @BarackObama doesn't respect the fact that the money he wastes belongs to us.
p2746
sg4
V11:36 AM - 20 Dec 2011
p2747
sa(dp2748
g2
V"People who have the ability to work should. But with the government happy to send checks, too many of them don't." #TimeToGetTough
p2749
sg4
V10:57 AM - 20 Dec 2011
p2750
sa(dp2751
g2
V"When are we going to wake up and realize that we are funding our enemies?"  #TimeToGetTough
p2752
sg4
V10:41 AM - 20 Dec 2011
p2753
sa(dp2754
g2
V"We need a tax system that is fair and smart--one that encourages growth, savings, and investment." #TimeToGetTough
p2755
sg4
V7:10 AM - 20 Dec 2011
p2756
sa(dp2757
g2
VChina taxing imports from the US --22%-- why aren't we taxing China?
p2758
sg4
V7:04 AM - 20 Dec 2011
p2759
sa(dp2760
g2
VDummies left Iraq without the oil--not believable!
p2761
sg4
V6:38 AM - 20 Dec 2011
p2762
sa(dp2763
g2
VIraq in political turmoil one day after we leave---I told you so.
p2764
sg4
V6:22 AM - 20 Dec 2011
p2765
sa(dp2766
g2
VCongratulations to my son Eric for making the Forbes 30 under 30 list. He's done a great job!  http://onforb.es/usUJac 
p2767
sg4
V1:36 PM - 19 Dec 2011
p2768
sa(dp2769
g2
VBarney Frank admited that ObamaCare does have 'death panels' yesterday. Obamacare must be fully repealed or healthcare will be destroyed.
p2770
sg4
V1:28 PM - 19 Dec 2011
p2771
sa(dp2772
g2
VWith a record deficit and $15 trillion in debt, @BarackObama is spending $4 million of our money on his Hawaii vacation. Just plain wrong.
p2773
sg4
V1:25 PM - 19 Dec 2011
p2774
sa(dp2775
g2
VMy interview with Andy Dean on @americanowradio- I told him what I really thought about the @FoxNews debate. http://bit.ly/sEdipv 
p2776
sg4
V7:05 AM - 19 Dec 2011
p2777
sa(dp2778
g2
VOPEC is setting crude at $94/barrel on 'signs US economy is improving.' OPEC uses any excuse to rip us off and our leaders just watch.
p2779
sg4
V1:12 PM - 16 Dec 2011
p2780
sa(dp2781
g2
VChina just put a tariff on US cars and trucks--22%--China is laughing at our inept leaders. @BarackObama
p2782
sg4
V12:36 PM - 16 Dec 2011
p2783
sa(dp2784
g2
VBut maybe my biggest beef with Obama is his view that there's nothing special or exceptional about America. #TimeToGetTough
p2785
sg4
V10:49 AM - 16 Dec 2011
p2786
sa(dp2787
g2
VSo biased: @TIME made 'The Protester' as the person of the year. @TIME celebrates OWS but vilified the Tea Party last year.
p2788
sg4
V12:06 PM - 15 Dec 2011
p2789
sa(dp2790
g2
VThis is what @BarackObama thinks: that America would be better off if we acted more like European socialist (cont) http://tl.gd/eo9c5f 
p2791
sg4
V11:07 AM - 15 Dec 2011
p2792
sa(dp2793
g2
VIf speeches and memoirs created jobs then @BarackObama would be Ronald Reagan.
p2794
sg4
V10:31 AM - 15 Dec 2011
p2795
sa(dp2796
g2
V#trumpvlog China is laughing....
p2797
sg4
V9:42 AM - 15 Dec 2011
p2798
sa(dp2799
g2
VPlease send a psychiatrist to help @Rosie, she\u2019s in a bad state. To @Rosie\u2019s girlfriend\u2019s parents--- get (cont) http://tl.gd/eo7r9h 
p2800
sg4
V9:05 AM - 15 Dec 2011
p2801
sa(dp2802
g2
VWith the number of tweets sad sack @Rosie has done, she has totally lost control of herself-- hopefully not a breakdown.
p2803
sg4
V7:56 AM - 15 Dec 2011
p2804
sa(dp2805
g2
V"Let me put this as plainly as I know how: Iran's nuclear program must be stopped--by any and all means necessary. Period." #TimeToGetTough
p2806
sg4
V7:36 AM - 15 Dec 2011
p2807
sa(dp2808
g2
VThe habitual vacationer, @BarackObama, has sacrificed so much. He is delaying his 17 day Hawaii vacation a couple of hours.
p2809
sg4
V2:08 PM - 14 Dec 2011
p2810
sa(dp2811
g2
VThe Mullahs laughed when @BarackObama "asked" Iran to return our drone--they will show it to China first.
p2812
sg4
V1:04 PM - 14 Dec 2011
p2813
sa(dp2814
g2
V"We have to combat the welfare mentality that says individuals are entitled to live off taxpayers." #TimeToGetTough
p2815
sg4
V12:48 PM - 14 Dec 2011
p2816
sa(dp2817
g2
V"So, if Iran is going to take over the oil, I say we take over the oil first by hammering out a cost-sharing plan with Iraq."#TimeToGetTough
p2818
sg4
V11:26 AM - 14 Dec 2011
p2819
sa(dp2820
g2
VSave your time @rosie and focus on your horrible ratings, and don't mention my name on talk shows anymore or you will get more of the same.
p2821
sg4
V9:20 AM - 14 Dec 2011
p2822
sa(dp2823
g2
V#badratings @Rosie you will never make it. You are not funny or talented.
p2824
sg4
V9:19 AM - 14 Dec 2011
p2825
sa(dp2826
g2
VI feel sorry for Rosie 's new partner in love whose parents are devastated at the thought of their daughter being with @Rosie--a true loser.
p2827
sg4
V8:45 AM - 14 Dec 2011
p2828
sa(dp2829
g2
VCheck out my new book  "Time To Get Tough: Making America #1 Again"
p2830
sg4
V7:43 AM - 14 Dec 2011
p2831
sa(dp2832
g2
VThousands of e-mails from folks urging me to seek the Americans Elect Presidential nomination.
p2833
sg4
V7:22 AM - 14 Dec 2011
p2834
sa(dp2835
g2
V#trumpvlog Same last name, same bad ratings- @lawrence and @rosie.....
p2836
sg4
V7:11 AM - 14 Dec 2011
p2837
sa(dp2838
g2
VHe says he will spend $1 B to get re-elected: @BarackObama. I can match him--preserving my options.
p2839
sg4
V7:01 AM - 14 Dec 2011
p2840
sa(dp2841
g2
VReal unemployment is 20%. We must simplify the tax code and start making our own products again to bring our jobs back from overseas.
p2842
sg4
V1:17 PM - 13 Dec 2011
p2843
sa(dp2844
g2
VWho handed Iraq over to Iran yesterday? @BarackObama. We have gotten nothing from the Iraqis-- we should have them pay us back with oil.
p2845
sg4
V12:16 PM - 13 Dec 2011
p2846
sa(dp2847
g2
VThe Mullahs are laughing at what they think is a very stupid president,@BarackObama has "asked" for Iran to return the drone #TimeToGetTough
p2848
sg4
V10:40 AM - 13 Dec 2011
p2849
sa(dp2850
g2
VLook, here's  the deal: @BarackObama has been a total disaster. He has spent this country into the ground and destroyed jobs #TimeToGetTough
p2851
sg4
V9:16 AM - 13 Dec 2011
p2852
sa(dp2853
g2
VWe need a dealmaker in the White House, who knows how to think innovatively and make smart deals. #TimeToGetTough.
p2854
sg4
V8:15 AM - 13 Dec 2011
p2855
sa(dp2856
g2
VTonight I will be signing copies of #TimeToGetTough in Westbury at Costco, 1250 Old Country Rd, from 6 pm to 8 pm
p2857
sg4
V7:50 AM - 13 Dec 2011
p2858
sa(dp2859
g2
V@BarackObama has accumulated more debt in 3 years than the first 42 Presidents combined. He is simply out of control.
p2860
sg4
V1:52 PM - 12 Dec 2011
p2861
sa(dp2862
g2
VWhy did @BarackObama let Iran keep our drone? Now it is going straight to the Chinese. He should have taken it out.
p2863
sg4
V1:31 PM - 12 Dec 2011
p2864
sa(dp2865
g2
VI was on a tele-townhall with @TeamBachmann and hosted her 4 times in Trump Tower yet she declined the Newsmax-@iontv debate. No loyalty.
p2866
sg4
V1:15 PM - 12 Dec 2011
p2867
sa(dp2868
g2
VI'm signing copies of my new book #TimeToGetTough this Thursday Dec 15 at Trump Tower (Fifth Ave between 56 & 57) from 12 noon to 2 pm.
p2869
sg4
V12:43 PM - 12 Dec 2011
p2870
sa(dp2871
g2
VIf these guys have any integrity they'd say no to MSNBC -- a network that few watch and is very negative. @AndrewBreitbart re debate.
p2872
sg4
V12:19 PM - 12 Dec 2011
p2873
sa(dp2874
g2
VMy FoxBusiness interview with Don Imus discussing #TimeToGetTough, the GOP primary and the Newsmax-@iontv debate
p2875
sg4
V8:36 AM - 12 Dec 2011
p2876
sa(dp2877
g2
VMy @FoxNews interview with @megynkelly discussing the 2012 election and the Newsmax-@iontv debate
p2878
sg4
V8:09 AM - 12 Dec 2011
p2879
sa(dp2880
g2
VWhy was the Hanukah celebration held in the White House two weeks early? @BarackObama wants to vacation in Hawaii in late December. Sad.
p2881
sg4
V1:26 PM - 9 Dec 2011
p2882
sa(dp2883
g2
V#TimeToGetTough The crowd at the book signing at Trump Tower in NYC right now...
p2884
sg4
V9:58 AM - 9 Dec 2011
p2885
sa(dp2886
g2
VYesterday I explained to @wolfblitzercnn on @CNNSitRoom why @BarackObama doesn't deserve credit for killing Bin Laden
p2887
sg4
V8:49 AM - 9 Dec 2011
p2888
sa(dp2889
g2
VMy interview on @WOR710 with Jon Gambling discussing #TimeToGetTough, meeting @NewtGingrich and the 2012 election http://bit.ly/vtSyrS 
p2890
sg4
V8:22 AM - 9 Dec 2011
p2891
sa(dp2892
g2
VTrump Tower is located at 725 Fifth Avenue, between 56th and 57th Streets...
p2893
sg4
V6:25 AM - 9 Dec 2011
p2894
sa(dp2895
g2
VBe sure to stop by Trump Tower today -- I'll be signing copies of my new book "Time To Get Tough"  from 11 am to 2 pm.
p2896
sg4
V6:16 AM - 9 Dec 2011
p2897
sa(dp2898
g2
VWhy does @BarackObama continue to defend radical Islam? He is calling the Ft. Hood massacre "workplace violence."
p2899
sg4
V12:46 PM - 8 Dec 2011
p2900
sa(dp2901
g2
VYou know what is the worst part of @BarackObama's Tuesday speech playing class warfare--we paid for it with our tax dollars.
p2902
sg4
V12:25 PM - 8 Dec 2011
p2903
sa(dp2904
g2
VA clip of my upcoming interview with @DavidBrody discussing #TimeToGetTough, @Israel and the Islamist winter  http://bit.ly/sxAlEe 
p2905
sg4
V10:45 AM - 8 Dec 2011
p2906
sa(dp2907
g2
V"What is a bit appealing about this idea of Trump hosting a debate is, consider the diverse audience that perh\u2026 (cont) http://deck.ly/~vneyg 
p2908
sg4
V9:21 AM - 8 Dec 2011
p2909
sa(dp2910
g2
V"The Architect" @KarlRove is directly responsible for losing both houses & @BarackObama becoming President. Ignore him.
p2911
sg4
V10:44 AM - 7 Dec 2011
p2912
sa(dp2913
g2
VI'll be signing copies of my new book  "Time To Get Tough" this Friday  Dec 9 in Trump Tower  from 11 a.m. t\u2026 (cont) http://deck.ly/~abYOp 
p2914
sg4
V5:51 AM - 7 Dec 2011
p2915
sa(dp2916
g2
VWhether we like it or not, oil is the axis on which the world's economies spin. It just is. When the price o\u2026 (cont) http://deck.ly/~qLPsC 
p2917
sg4
V12:52 PM - 6 Dec 2011
p2918
sa(dp2919
g2
VGet it straight: Pakistan is not our friend. When our tremendous Navy SEALS took out Osama bin Laden, they did\u2026 (cont) http://deck.ly/~pOSbX 
p2920
sg4
V12:16 PM - 6 Dec 2011
p2921
sa(dp2922
g2
VCanada's legal immigration plan starts with a simple and smart question: How will any immigrant applying fo\u2026 (cont) http://deck.ly/~uRmzC 
p2923
sg4
V11:47 AM - 6 Dec 2011
p2924
sa(dp2925
g2
VPresident Reagan put it best: "Welfare's purpose should be to eliminate, as far as possible, the need for its own existence."
p2926
sg4
V11:28 AM - 6 Dec 2011
p2927
sa(dp2928
g2
VCall me old school, but I believe in the old warrior's credo that "to the victor go the spoils." In other word\u2026 (cont) http://deck.ly/~yWhwS 
p2929
sg4
V11:18 AM - 6 Dec 2011
p2930
sa(dp2931
g2
VForty -six million Americans---more than at any time ever in the history of this country--now live under the poverty line. #TimeToGetTough
p2932
sg4
V8:52 AM - 6 Dec 2011
p2933
sa(dp2934
g2
VIllegal immigration is a wrecking ball aimed at US taxpayers. Washington needs to get tough and fight for "W\u2026 (cont) http://deck.ly/~pEibz 
p2935
sg4
V8:22 AM - 6 Dec 2011
p2936
sa(dp2937
g2
VDid you know that one of seven Americans is now on food stamps? Think of it. In the United States, the most pr\u2026 (cont) http://deck.ly/~QLt8T 
p2938
sg4
V7:29 AM - 6 Dec 2011
p2939
sa(dp2940
g2
VI'm sick of always reading about outsourcing. Why aren't we talking about "onshoring"? We need to bring manufa\u2026 (cont) http://deck.ly/~VUw14 
p2941
sg4
V12:03 PM - 5 Dec 2011
p2942
sa(dp2943
g2
VFirst there was the Declaration of Independence, then there was the Constitution. Now there is #TimeToGetTough. Available today.
p2944
sg4
V10:04 AM - 5 Dec 2011
p2945
sa(dp2946
g2
VIf @BarackObama put down 'Rules for radicals' and read #TimeToGetTough then America would be #1 again---and he might even get re-elected.
p2947
sg4
V9:39 AM - 5 Dec 2011
p2948
sa(dp2949
g2
VMet @newtgingrich at Trump Tower today. He's a big thinker.
p2950
sg4
V9:02 AM - 5 Dec 2011
p2951
sa(dp2952
g2
V#TimeToGetTough: Making America #1 Again--my new book--available today.   The book both China and OPEC do NOT want you to read.
p2953
sg4
V8:47 AM - 5 Dec 2011
p2954
sa(dp2955
g2
VWhen it comes to China, @BarackObama practices "pretty please" diplomacy. He begs and pleads and bows---and it\u2026 (cont) http://deck.ly/~sgjvu 
p2956
sg4
V1:28 PM - 2 Dec 2011
p2957
sa(dp2958
g2
VWe are building China's wealth by buying all their products, even though we make better products in America.
p2959
sg4
V11:16 AM - 2 Dec 2011
p2960
sa(dp2961
g2
VMy new book tells some harsh truths and lays out some bold plans. Time for America to be #1 again.  #TimeToGetTough
p2962
sg4
V10:44 AM - 2 Dec 2011
p2963
sa(dp2964
g2
VHere's my message to @BarackObama: America is a capitalistic country. Get over it and get on with it!  #TimeToGetTough
p2965
sg4
V10:23 AM - 2 Dec 2011
p2966
sa(dp2967
g2
VThe new job figures don't include 315,000 people who have given up looking for jobs.
p2968
sg4
V8:36 AM - 2 Dec 2011
p2969
sa(dp2970
g2
VIf "The Art of the Deal" is a must read then #TimeToGetTough" is my opus.  It is available Dec 5th!
p2971
sg4
V7:27 AM - 2 Dec 2011
p2972
sa(dp2973
g2
VMeeting Former Speaker Newt Gingrich next week. On the Agenda---defeating @BarackObama.
p2974
sg4
V7:11 AM - 2 Dec 2011
p2975
sa(dp2976
g2
VWhy doesn't OPEC lower the price of crude to help avert the European crisis? Crude keeps rising during the dow\u2026 (cont) http://deck.ly/~Dg0Qn 
p2977
sg4
V12:15 PM - 1 Dec 2011
p2978
sa(dp2979
g2
VThe worst employee in today's #trumpvlog...
p2980
sg4
V12:06 PM - 1 Dec 2011
p2981
sa(dp2982
g2
VThe Fed continues to recklessly flood the market with dollars. This will eventually create record inflation. It has to stop. #TimeToGetTough
p2983
sg4
V11:14 AM - 1 Dec 2011
p2984
sa(dp2985
g2
VHe ruins the brand: @bobbeckel doesn't belong on @FoxNews. As CM for Mondale in '84, you  lost 49 states. Sad!
p2986
sg4
V10:48 AM - 1 Dec 2011
p2987
sa(dp2988
g2
VThe Washington Establishment will never rein in government spending, waste, fraud and abuse. A great thinker and outsider is needed.
p2989
sg4
V11:03 AM - 30 Dec 2011
p2990
sa(dp2991
g2
VWhen will the US government finally classify China as a currency manipulator? China is robbing us blind and @BarackObama defends them.
p2992
sg4
V10:47 AM - 30 Dec 2011
p2993
sa(dp2994
g2
VBoth @Rosie and @RonPaul think America is responsible for 9/11.  http://bit.ly/tcIc6x   http://bit.ly/v4Eghs   (cont) http://tl.gd/f1qv2t 
p2995
sg4
V10:36 AM - 30 Dec 2011
p2996
sa(dp2997
g2
VLooks like Michele Bachmann will finish dead last in Iowa while her own campaign chairman bails on her. (cont) http://tl.gd/f1qsji 
p2998
sg4
V10:32 AM - 30 Dec 2011
p2999
sa(dp3000
g2
VI play golf to relax. My company is in great shape. @BarackObama plays golf to escape work while America goes down the drain.
p3001
sg4
V10:12 AM - 30 Dec 2011
p3002
sa(dp3003
g2
VNYC should hold a parade for returning Iraq and Afghanistan veterans.
p3004
sg4
V9:57 AM - 30 Dec 2011
p3005
sa(dp3006
g2
VI'm sending @BarackObama an autographed copy of #TimeToGetTough. He could use it.
p3007
sg4
V9:45 AM - 30 Dec 2011
p3008
sa(dp3009
g2
VI like Russell Brand, but Katy Perry made a big mistake when she married him. Let's see if I'm right---I hope not.
p3010
sg4
V12:44 PM - 29 Dec 2011
p3011
sa(dp3012
g2
VAmerica wasted billions and precious lives in Iraq and Iran will soon take control--very very sad.
p3013
sg4
V12:26 PM - 29 Dec 2011
p3014
sa(dp3015
g2
VI'm right, TPM is wrong - @BarackObama did not issue a special statement for Christmas--however he issued one (cont) http://tl.gd/f15bee 
p3016
sg4
V11:36 AM - 29 Dec 2011
p3017
sa(dp3018
g2
VThe Mar-a-Lago Club has the best meatloaf in America. Tasty. http://www.maralagoclub.com/ 
p3019
sg4
V10:23 AM - 29 Dec 2011
p3020
sa(dp3021
g2
VI predicted the 9/11 attack on America in my book "The America We Deserve" and the collapse of Iraq in @TimeToGetTough.
p3022
sg4
V8:49 AM - 29 Dec 2011
p3023
sa(dp3024
g2
VAmericans Elect on track to put an Indy Presidential candidate on the ballot in all 50 states.
p3025
sg4
V8:32 AM - 29 Dec 2011
p3026
sa(dp3027
g2
VHe is destroying our country:@BarackObama has requested to raise our debt limit to over $16.4Trillion by the end (cont) http://tl.gd/f0fcuh 
p3028
sg4
V12:13 PM - 28 Dec 2011
p3029
sa(dp3030
g2
V"It's important that we help poor people to become independent, self-sufficient individuals who gain the benefits of work." #TimeToGetTough
p3031
sg4
V11:11 AM - 28 Dec 2011
p3032
sa(dp3033
g2
VChina has 5 oil projects in Iraq and we didn't get anything from the Iraqis except asked to leave. Iraq is going (cont) http://tl.gd/f0ec7f 
p3034
sg4
V10:43 AM - 28 Dec 2011
p3035
sa(dp3036
g2
VThe Fed's reckless monetary policies will cause problems in the years to come. The Fed has to be reined in or we will soon be Greece.
p3037
sg4
V8:27 AM - 28 Dec 2011
p3038
sa(dp3039
g2
VWhat a convenient mistake: @BarackObama issued a statement for Kwanza but failed to issue one for Christmas.
p3040
sg4
V8:02 AM - 28 Dec 2011
p3041
sa(dp3042
g2
VVote for your favorite TRUMP HOTEL COLLECTION hotels in Travel + Leisure\u2019s 2012 World\u2019s Best Awards Survey http://bit.ly/tKTwvj 
p3043
sg4
V6:53 AM - 28 Dec 2011
p3044
sa(dp3045
g2
V@TrumpCollection tops @TravlandLeisure 500 Best Hotels in the World! Congrats @TrumpNewYork, @TrumpLasVegas, @TrumpChicago, @TrumpSoHo
p3046
sg4
V6:51 AM - 28 Dec 2011
p3047
sa(dp3048
g2
VA vote for @RonPaul is a totally wasted vote. If he wins Iowa---bad for Iowa's credibility.
p3049
sg4
V11:55 AM - 27 Dec 2011
p3050
sa(dp3051
g2
VGovt. collapsing in Iraq only 2 weeks after withdrawal of our troops. Sadly, I called this one and please remember, I alone called it.
p3052
sg4
V11:38 AM - 27 Dec 2011
p3053
sa(dp3054
g2
VThe habitual vacationer, @BarackObama, is now in Hawaii. This vacation is costing taxpayers $4 milion +++  while there is 20% unemployment.
p3055
sg4
V11:08 AM - 27 Dec 2011
p3056
sa(dp3057
g2
VCongratulations to my friends @Newsmax. Readership up 247%. 7 million people a month now reading.
p3058
sg4
V10:54 AM - 27 Dec 2011
p3059
sa(dp3060
g2
VIn order to preserve my options and guarantee that @BarackObama is defeated, I changed my voter registration to independent.
p3061
sg4
V10:45 AM - 27 Dec 2011
p3062
sa(dp3063
g2
VVote now for your favorite TRUMP HOTEL COLLECTION hotels in Travel + Leisure\u2019s 2012 World\u2019s Best Awards Survey  http://bit.ly/tKTwvj 
p3064
sg4
V5:58 AM - 27 Dec 2011
p3065
sa(dp3066
g2
V@TrumpCollection tops @TravlandLeisure 500 Best Hotels in the World! Congrats @TrumpNewYork, @TrumpLasVegas, @TrumpChicago, @TrumpSoHo
p3067
sg4
V5:56 AM - 27 Dec 2011
p3068
sa(dp3069
g2
VThe Keystone pipeline will create 20,000 jobs and make us less energy dependent from the Middle East. @BarackObama says No!
p3070
sg4
V1:25 PM - 22 Dec 2011
p3071
sa(dp3072
g2
VThe safest way to preserve Medicare is with a robust and vibrant economy. We should lower corporate and capital gain taxes immediately.
p3073
sg4
V12:55 PM - 22 Dec 2011
p3074
sa(dp3075
g2
VA week after Biden says that the Taliban is not our enemy, the Taliban demand that we pay Iraq for a 9 year occupation. http://bit.ly/ujIJS8 
p3076
sg4
V12:51 PM - 22 Dec 2011
p3077
sa(dp3078
g2
VEven if @BarackObama stays in DC, taxpayers will pay millions for his Hawaii vacation when Americans are struggling http://bit.ly/uaQfLd 
p3079
sg4
V12:34 PM - 22 Dec 2011
p3080
sa(dp3081
g2
V\u201cConsider the fact that for every gallon of gas you put in your car, you pay 45.8 cents in state, local, and federal taxes.\u201d #TimeToGetTough
p3082
sg4
V12:08 PM - 22 Dec 2011
p3083
sa(dp3084
g2
V\u201cThe thing about high corporate tax rates is that, in the end, companies aren\u2019t the ones who foot the bill, consumers do.\u201d #TimeToGetTough
p3085
sg4
V12:05 PM - 22 Dec 2011
p3086
sa(dp3087
g2
V\u201cWe have a president who has a vendetta against businesspeople and considers them the enemy. He\u2019s also (cont) http://tl.gd/eshtt2 
p3088
sg4
V12:02 PM - 22 Dec 2011
p3089
sa(dp3090
g2
VMy new book #TimeToGetTough is the best present of the holiday season. A great gift for anyone who cares about this country.
p3091
sg4
V11:32 AM - 22 Dec 2011
p3092
sa(dp3093
g2
VLess than a week after we leave Iraq, the country is already unraveling. We got nothing from the Iraqis and now (cont) http://tl.gd/eshi2u 
p3094
sg4
V11:23 AM - 22 Dec 2011
p3095
sa(dp3096
g2
VMy @FoxNews interview with @gretawire discussing how @BarackObama is delusional and how a 3rd party candidate can win.
p3097
sg4
V11:17 AM - 22 Dec 2011
p3098
sa(dp3099
g2
VBarney Frank looked disgusting--nipples protruding--in his blue shirt before Congress. Very very disrespectful.
p3100
sg4
V12:36 PM - 21 Dec 2011
p3101
sa(dp3102
g2
VCongratulations to @AmericansElect for winning a spot on the California 2012 ballot. A major feat!   http://lat.ms/vVZcX2 
p3103
sg4
V12:11 PM - 21 Dec 2011
p3104
sa(dp3105
g2
VHe is delusional: @BarackObama believes that he is the 4th best POTUS ever.
p3106
sg4
V11:36 AM - 21 Dec 2011
p3107
sa(dp3108
g2
VThe WH yesterday defended Biden's comments that the Taliban aren't our enemy. When did the American people decide this?
p3109
sg4
V11:28 AM - 21 Dec 2011
p3110
sa(dp3111
g2
V"Obamacare has to be killed now before it grows into an even bigger mess, as it inevitably will." #TimeToGetTough
p3112
sg4
V10:55 AM - 21 Dec 2011
p3113
sa(dp3114
g2
V"The sad truth is some Republicans in Congress are clueless when it comes to negotiation."  #TimeToGetTough
p3115
sg4
V10:49 AM - 21 Dec 2011
p3116
sa(dp3117
g2
VI really enjoyed last night's Tele-Town Hall with @ralphreed's Faith and Freedom Coalition. Thanks to the thousands who joined.
p3118
sg4
V10:28 AM - 21 Dec 2011
p3119
sa(dp3120
g2
VI still can't believe we didn't t take the oil from Iraq.
p3121
sg4
V10:20 AM - 21 Dec 2011
p3122
sa(dp3123
g2
VMy interview with @ASavageNation discussing #TimeToGetTough, my 2012 plans and Iraq http://bit.ly/vnHtUZ   http://bit.ly/un44dK 
p3124
sg4
V10:14 AM - 21 Dec 2011
p3125
sa(dp3126
g2
VFor last minute shopping, my new book #TimeToGetTough is a great choice...http://amzn.to/sNqlFH
p3127
sg4
V6:51 AM - 21 Dec 2011
p3128
sa(dp3129
g2
VThe average family has spent $4,155 this year filling up the car on $3.50/gallon average. Both record highs. (cont) http://tl.gd/er9mbq 
p3130
sg4
V1:11 PM - 20 Dec 2011
p3131
sa(dp3132
g2
VTom "marbles in his mouth" Brokaw once thanked me for the great success of the Apprentice for NBC. Now, he calls (cont) http://tl.gd/er9in6 
p3133
sg4
V12:58 PM - 20 Dec 2011
p3134
sa(dp3135
g2
VJoe Biden said that the Taliban 'is not our enemy.' I wonder how our troops in Afghanistant that are under attack view Biden's statement.
p3136
sg4
V12:44 PM - 20 Dec 2011
p3137
sa(dp3138
g2
VWhat a shock! The U.S. Capitol Christmas tree pays homage @BarackObama but failed to mention Jesus.
p3139
sg4
V12:12 PM - 20 Dec 2011
p3140
sa(dp3141
g2
VHe thinks that the wealth you create belongs to the gov't. @BarackObama doesn't respect the fact that the money he wastes belongs to us.
p3142
sg4
V11:36 AM - 20 Dec 2011
p3143
sa(dp3144
g2
V"He thinks that the wealth you create belongs to the government--@BarackObama doesn't respect the fact that the (cont) http://tl.gd/er8rmd 
p3145
sg4
V11:35 AM - 20 Dec 2011
p3146
sa(dp3147
g2
V"People who have the ability to work should. But with the government happy to send checks, too many of them don't." #TimeToGetTough
p3148
sg4
V10:57 AM - 20 Dec 2011
p3149
sa(dp3150
g2
V"When are we going to wake up and realize that we are funding our enemies?"  #TimeToGetTough
p3151
sg4
V10:41 AM - 20 Dec 2011
p3152
sa(dp3153
g2
VA great gift idea is my new book #TimeToGetTough, easy to order on Amazon    http://amzn.to/sNqlFH 
p3154
sg4
V8:42 AM - 20 Dec 2011
p3155
sa(dp3156
g2
VWe're all proud of @erictrump for being on @Forbes 30 Under 30 list. http://onforb.es/s9aNkI 
p3157
sg4
V7:58 AM - 20 Dec 2011
p3158
sa(dp3159
g2
V"It's a plain fact: free trade requires having fair rules that apply to everyone."\u000a#TimeToGetTough
p3160
sg4
V7:51 AM - 20 Dec 2011
p3161
sa(dp3162
g2
V"We need a tax system that is fair and smart--one that encourages growth, savings, and investment." #TimeToGetTough
p3163
sg4
V7:10 AM - 20 Dec 2011
p3164
sa(dp3165
g2
VChina taxing imports from the US --22%-- why aren't we taxing China?
p3166
sg4
V7:04 AM - 20 Dec 2011
p3167
sa(dp3168
g2
VDummies left Iraq without the oil--not believable!
p3169
sg4
V6:38 AM - 20 Dec 2011
p3170
sa(dp3171
g2
VIraq in political turmoil one day after we leave---I told you so.
p3172
sg4
V6:22 AM - 20 Dec 2011
p3173
sa(dp3174
g2
VEven @BarackObama's former National Security Advisor Jim Jones has called the Keystone pipeline  'a national must.' America needs it.
p3175
sg4
V1:40 PM - 19 Dec 2011
p3176
sa(dp3177
g2
VCongratulations to my son Eric for making the Forbes 30 under 30 list. He's done a great job!  http://onforb.es/usUJac 
p3178
sg4
V1:36 PM - 19 Dec 2011
p3179
sa(dp3180
g2
VBarney Frank admited that ObamaCare does have 'death panels' yesterday. Obamacare must be fully repealed or healthcare will be destroyed.
p3181
sg4
V1:28 PM - 19 Dec 2011
p3182
sa(dp3183
g2
VWith a record deficit and $15 trillion in debt, @BarackObama is spending $4 million of our money on his Hawaii vacation. Just plain wrong.
p3184
sg4
V1:25 PM - 19 Dec 2011
p3185
sa(dp3186
g2
VOur diplomats are weak: @JonHuntsman's China policy proves why we need businesmen to negotiate against China.
p3187
sg4
V1:19 PM - 19 Dec 2011
p3188
sa(dp3189
g2
VRailing at Obama over China: @maggiepolitico
p3190
sg4
V1:13 PM - 19 Dec 2011
p3191
sa(dp3192
g2
VRT @TheDCVInce: Trump's letter to Obama: China thinks you're weak http://thedc.com/sETUHe 
p3193
sg4
V1:09 PM - 19 Dec 2011
p3194
sa(dp3195
g2
VLooking forward to Tuesday's tele town hall @7:30PM with @ralphreed's Faith and Freedom Coalition. Will be a great time!
p3196
sg4
V1:07 PM - 19 Dec 2011
p3197
sa(dp3198
g2
VMy @FoxNews interview on @FNTTHe Five discussing the #TimeToGetTough, the GOP primary and China's tariff on our cars
p3199
sg4
V1:05 PM - 19 Dec 2011
p3200
sa(dp3201
g2
VWith Christmas less than a week away, a great gift for a friend or loved one is #TimeToGetTough. It will be the best present you give!
p3202
sg4
V12:37 PM - 19 Dec 2011
p3203
sa(dp3204
g2
VMy interview with Andy Dean on @americanowradio- I told him what I really thought about the @FoxNews debate. http://bit.ly/sEdipv 
p3205
sg4
V7:05 AM - 19 Dec 2011
p3206
sa(dp3207
g2
VI'll be on @americanowradio with Andy Dean at 6:30 ET today talking about last night's @FoxNews debate.
p3208
sg4
V1:53 PM - 16 Dec 2011
p3209
sa(dp3210
g2
VOPEC is setting crude at $94/barrel on 'signs US economy is improving.' OPEC uses any excuse to rip us off and our leaders just watch.
p3211
sg4
V1:12 PM - 16 Dec 2011
p3212
sa(dp3213
g2
VChina just put a tariff on US cars and trucks--22%--China is laughing at our inept leaders. @BarackObama
p3214
sg4
V12:36 PM - 16 Dec 2011
p3215
sa(dp3216
g2
VThe lightweight, @JonHuntsman, used my name in a debate for gravitas--it didn't work. Sad!
p3217
sg4
V12:18 PM - 16 Dec 2011
p3218
sa(dp3219
g2
VA total lightweight: @JonHuntsman continues to give the worst responses on China in the debates. I can see why (cont) http://tl.gd/eot026 
p3220
sg4
V12:06 PM - 16 Dec 2011
p3221
sa(dp3222
g2
VGreat @Esquiremag piece - '@DonaldJTrumpJr: What I've Learned' http://bit.ly/ttfcJ0 
p3223
sg4
V11:37 AM - 16 Dec 2011
p3224
sa(dp3225
g2
VMy interview with @BarbaraJWalters in her @ABC special 'Most Fascinating People of 2011'
p3226
sg4
V11:05 AM - 16 Dec 2011
p3227
sa(dp3228
g2
VBut maybe my biggest beef with Obama is his view that there's nothing special or exceptional about America. #TimeToGetTough
p3229
sg4
V10:49 AM - 16 Dec 2011
p3230
sa(dp3231
g2
VYour civil liberties mean nothing if you're dead. That's why the single most important function of the federal (cont) http://tl.gd/eos6vt 
p3232
sg4
V10:41 AM - 16 Dec 2011
p3233
sa(dp3234
g2
V"I believe this book will rock a lot of people. Don't just read #TImeToGetTough but share it with your friends and family!" -RushLimbaugh
p3235
sg4
V10:27 AM - 16 Dec 2011
p3236
sa(dp3237
g2
VThanks to everyone who has waited in the long lines at the #TimeToGetTough book signings. It is great to meet fellow patriots.
p3238
sg4
V9:27 AM - 16 Dec 2011
p3239
sa(dp3240
g2
VSo biased: @TIME made 'The Protester' as the person of the year. @TIME celebrates OWS but vilified the Tea Party last year.
p3241
sg4
V12:06 PM - 15 Dec 2011
p3242
sa(dp3243
g2
VThis is what @BarackObama thinks: that America would be better off if we acted more like European socialist (cont) http://tl.gd/eo9c5f 
p3244
sg4
V11:07 AM - 15 Dec 2011
p3245
sa(dp3246
g2
VIf speeches and memoirs created jobs then @BarackObama would be Ronald Reagan.
p3247
sg4
V10:31 AM - 15 Dec 2011
p3248
sa(dp3249
g2
V#trumpvlog China is laughing....
p3250
sg4
V9:42 AM - 15 Dec 2011
p3251
sa(dp3252
g2
VPlease send a psychiatrist to help @Rosie, she\u2019s in a bad state. To @Rosie\u2019s girlfriend\u2019s parents--- get (cont) http://tl.gd/eo7r9h 
p3253
sg4
V9:05 AM - 15 Dec 2011
p3254
sa(dp3255
g2
VMore people attend a @JonHuntsman rally than watch @Lawrence on @MSNBCtv all week. @Lawrence is very lonely. (cont) http://tl.gd/eo7fjd 
p3256
sg4
V8:43 AM - 15 Dec 2011
p3257
sa(dp3258
g2
VWith the number of tweets sad sack @Rosie has done, she has totally lost control of herself-- hopefully not a breakdown.
p3259
sg4
V7:56 AM - 15 Dec 2011
p3260
sa(dp3261
g2
V#noratings @Lawrence will soon be off tv- bad ratings- he has a face made for radio.
p3262
sg4
V7:55 AM - 15 Dec 2011
p3263
sa(dp3264
g2
V"Let me put this as plainly as I know how: Iran's nuclear program must be stopped--by any and all means necessary. Period." #TimeToGetTough
p3265
sg4
V7:36 AM - 15 Dec 2011
p3266
sa(dp3267
g2
VIt is great to meet fellow patriots at the #TimeToGetTough book signings. Can't wait to meet more today at Trump Tower from 12PM to 2PM
p3268
sg4
V7:25 AM - 15 Dec 2011
p3269
sa(dp3270
g2
VThe first book signing at Trump Tower for #TimeToGetTough was so popular that I'm doing another one today from noon to 2pm/Trump Tower
p3271
sg4
V6:43 AM - 15 Dec 2011
p3272
sa(dp3273
g2
VHope to see you tomorrow in Trump Tower (5th Ave betw 56 and 57) -- I'll be signing copies of my book #TimeToGetTough from noon until 2 pm
p3274
sg4
V2:22 PM - 14 Dec 2011
p3275
sa(dp3276
g2
VThe habitual vacationer, @BarackObama, has sacrificed so much. He is delaying his 17 day Hawaii vacation a couple of hours.
p3277
sg4
V2:08 PM - 14 Dec 2011
p3278
sa(dp3279
g2
VIran is closing the Strait of Hormuz for a military exercise. Imagine what they will do with nukes?!
p3280
sg4
V1:53 PM - 14 Dec 2011
p3281
sa(dp3282
g2
VThe Mullahs laughed when @BarackObama "asked" Iran to return our drone--they will show it to China first.
p3283
sg4
V1:04 PM - 14 Dec 2011
p3284
sa(dp3285
g2
V"We have to combat the welfare mentality that says individuals are entitled to live off taxpayers." #TimeToGetTough
p3286
sg4
V12:48 PM - 14 Dec 2011
p3287
sa(dp3288
g2
VIt has been great to meet so many wonderful people in my #TimeToGetTough book signings. Anyone who wants to be Prez should read!
p3289
sg4
V12:07 PM - 14 Dec 2011
p3290
sa(dp3291
g2
V"So, if Iran is going to take over the oil, I say we take over the oil first by hammering out a cost-sharing plan with Iraq."#TimeToGetTough
p3292
sg4
V11:26 AM - 14 Dec 2011
p3293
sa(dp3294
g2
VRead this about @lawrence......
p3295
sg4
V11:12 AM - 14 Dec 2011
p3296
sa(dp3297
g2
VMy interview with @EWErickson of @RedState discussing #TimeToGetTough, GOP primary and my 2012 options
p3298
sg4
V11:06 AM - 14 Dec 2011
p3299
sa(dp3300
g2
VMy @FoxNews interview with @gretawire explaining that I am keeping all my options available for 2012
p3301
sg4
V10:55 AM - 14 Dec 2011
p3302
sa(dp3303
g2
VSave your time @rosie and focus on your horrible ratings, and don't mention my name on talk shows anymore or you will get more of the same.
p3304
sg4
V9:20 AM - 14 Dec 2011
p3305
sa(dp3306
g2
V#badratings @Rosie you will never make it. You are not funny or talented.
p3307
sg4
V9:19 AM - 14 Dec 2011
p3308
sa(dp3309
g2
V#badratings @Lawrence's show failed at 8pm and is failing(even worse) at 10pm- not long for tv.....
p3310
sg4
V8:48 AM - 14 Dec 2011
p3311
sa(dp3312
g2
VI feel sorry for Rosie 's new partner in love whose parents are devastated at the thought of their daughter being with @Rosie--a true loser.
p3313
sg4
V8:45 AM - 14 Dec 2011
p3314
sa(dp3315
g2
VMy @FoxNews interview with @TeamCavuto discussing why I will not be moderating the Newsmax-@iontv debate
p3316
sg4
V8:43 AM - 14 Dec 2011
p3317
sa(dp3318
g2
VCheck out my new book  "Time To Get Tough: Making America #1 Again"
p3319
sg4
V7:43 AM - 14 Dec 2011
p3320
sa(dp3321
g2
VThousands of e-mails from folks urging me to seek the Americans Elect Presidential nomination.
p3322
sg4
V7:22 AM - 14 Dec 2011
p3323
sa(dp3324
g2
V#trumpvlog Same last name, same bad ratings- @lawrence and @rosie.....
p3325
sg4
V7:11 AM - 14 Dec 2011
p3326
sa(dp3327
g2
VHe says he will spend $1 B to get re-elected: @BarackObama. I can match him--preserving my options.
p3328
sg4
V7:01 AM - 14 Dec 2011
p3329
sa(dp3330
g2
VI'll be signing copies of my new book @TimeToGetTough tomorrow at Trump Tower (5th Avenue between 56 and 57) from noon to 2pm.
p3331
sg4
V6:44 AM - 14 Dec 2011
p3332
sa(dp3333
g2
VReal unemployment is 20%. We must simplify the tax code and start making our own products again to bring our jobs back from overseas.
p3334
sg4
V1:17 PM - 13 Dec 2011
p3335
sa(dp3336
g2
V#trumpvlog NY Area- Two book signings- Tonight and Thursday....
p3337
sg4
V12:45 PM - 13 Dec 2011
p3338
sa(dp3339
g2
VWho handed Iraq over to Iran yesterday? @BarackObama. We have gotten nothing from the Iraqis-- we should have them pay us back with oil.
p3340
sg4
V12:16 PM - 13 Dec 2011
p3341
sa(dp3342
g2
VDon't forget my book signing tonight at Costco on 1250 Old Country Road in Westbury, NY, from 6-8 pm. Hope to see you there.
p3343
sg4
V11:02 AM - 13 Dec 2011
p3344
sa(dp3345
g2
VThe Mullahs are laughing at what they think is a very stupid president,@BarackObama has "asked" for Iran to return the drone #TimeToGetTough
p3346
sg4
V10:40 AM - 13 Dec 2011
p3347
sa(dp3348
g2
VLook, here's  the deal: @BarackObama has been a total disaster. He has spent this country into the ground and destroyed jobs #TimeToGetTough
p3349
sg4
V9:16 AM - 13 Dec 2011
p3350
sa(dp3351
g2
VWe need a dealmaker in the White House, who knows how to think innovatively and make smart deals. #TimeToGetTough.
p3352
sg4
V8:15 AM - 13 Dec 2011
p3353
sa(dp3354
g2
VTonight I will be signing copies of #TimeToGetTough in Westbury at Costco, 1250 Old Country Rd, from 6 pm to 8 pm
p3355
sg4
V7:50 AM - 13 Dec 2011
p3356
sa(dp3357
g2
V@Amazon sold out of #TimeToGetTough in the first week. More copies have been ordered for holidays. Don't worry.
p3358
sg4
V7:35 AM - 13 Dec 2011
p3359
sa(dp3360
g2
VMy interview on @theviewtv discussing #TimeToGetTough, the GOP primary and the Newsmax-@iontv  debate(starts at 23:00) http://abc.tv/sEopk8 
p3361
sg4
V7:16 AM - 13 Dec 2011
p3362
sa(dp3363
g2
VA clip from my @foxandfriends interview discussing how  Newsmax-@iontv debate is determining the GOP primary polls
p3364
sg4
V6:58 AM - 13 Dec 2011
p3365
sa(dp3366
g2
V@BarackObama has accumulated more debt in 3 years than the first 42 Presidents combined. He is simply out of control.
p3367
sg4
V1:52 PM - 12 Dec 2011
p3368
sa(dp3369
g2
VWhy did @BarackObama let Iran keep our drone? Now it is going straight to the Chinese. He should have taken it out.
p3370
sg4
V1:31 PM - 12 Dec 2011
p3371
sa(dp3372
g2
VI was on a tele-townhall with @TeamBachmann and hosted her 4 times in Trump Tower yet she declined the Newsmax-@iontv debate. No loyalty.
p3373
sg4
V1:15 PM - 12 Dec 2011
p3374
sa(dp3375
g2
V"Donald Trump, I think, would be fairer than a lot of the folks that have been moderating debates over the past few months." @RickSantorum
p3376
sg4
V1:08 PM - 12 Dec 2011
p3377
sa(dp3378
g2
VChina and OPEC were not mentioned in a single question in the @ABC Iowa debate this past Saturday. Wait for the Newsmax-@iontv debate!
p3379
sg4
V12:56 PM - 12 Dec 2011
p3380
sa(dp3381
g2
VI'm signing copies of my new book #TimeToGetTough this Thursday Dec 15 at Trump Tower (Fifth Ave between 56 & 57) from 12 noon to 2 pm.
p3382
sg4
V12:43 PM - 12 Dec 2011
p3383
sa(dp3384
g2
VIf these guys have any integrity they'd say no to MSNBC -- a network that few watch and is very negative. @AndrewBreitbart re debate.
p3385
sg4
V12:19 PM - 12 Dec 2011
p3386
sa(dp3387
g2
V"I would have done it because people who don't ordinarily lock in will watch." @oreillyfactor on Newsmax-@iontv debate to @jayleno
p3388
sg4
V12:14 PM - 12 Dec 2011
p3389
sa(dp3390
g2
VMy @WPBF25News interview at the Boca Raton #TimeToGetTough book signing discussing how @BarackObama is clueless http://bit.ly/u5tqNy 
p3391
sg4
V11:42 AM - 12 Dec 2011
p3392
sa(dp3393
g2
VMy FoxBusiness interview with Don Imus discussing #TimeToGetTough, the GOP primary and the Newsmax-@iontv debate
p3394
sg4
V8:36 AM - 12 Dec 2011
p3395
sa(dp3396
g2
VMy @FoxNews interview with @megynkelly discussing the 2012 election and the Newsmax-@iontv debate
p3397
sg4
V8:09 AM - 12 Dec 2011
p3398
sa(dp3399
g2
VI signed over 5000 copies of my new book #TimeToGetTough this weekend---hand hurts but met many great people.
p3400
sg4
V8:01 AM - 12 Dec 2011
p3401
sa(dp3402
g2
VExcited that @OurCountryPAC's Amy Kremer has endorsed the Newsmax-iontv debate. The Tea Party Express is a great group.
p3403
sg4
V1:35 PM - 9 Dec 2011
p3404
sa(dp3405
g2
VWhy was the Hanukah celebration held in the White House two weeks early? @BarackObama wants to vacation in Hawaii in late December. Sad.
p3406
sg4
V1:26 PM - 9 Dec 2011
p3407
sa(dp3408
g2
VSantorum calls Trump debate skippers "hypocrites"  http://www.politico.com/news/stories/1211/70137.html \u2026) @RickSantorum
p3409
sg4
V12:53 PM - 9 Dec 2011
p3410
sa(dp3411
g2
VRick Santorum making a strong point on the Newsmax-@iontv debate: @RickSantorum. http://politi.co/u2iM0P 
p3412
sg4
V12:51 PM - 9 Dec 2011
p3413
sa(dp3414
g2
VIowa Congressman @SteveKingIA has endorsed the Newsmax-@iontv debate. He has been doing great work in the House.
p3415
sg4
V11:12 AM - 9 Dec 2011
p3416
sa(dp3417
g2
VA  great crowd at Trump Tower for #TimeToGetTough book signing!
p3418
sg4
V10:27 AM - 9 Dec 2011
p3419
sa(dp3420
g2
VExcited that @OurCountryPAC's @Amy Kremer has endorsed the Newsmax-@iontv debate. The Tea Party Express is a great group.
p3421
sg4
V10:25 AM - 9 Dec 2011
p3422
sa(dp3423
g2
V#TimeToGetTough The crowd at the book signing at Trump Tower in NYC right now...
p3424
sg4
V9:58 AM - 9 Dec 2011
p3425
sa(dp3426
g2
VYesterday I explained to @wolfblitzercnn on @CNNSitRoom why @BarackObama doesn't deserve credit for killing Bin Laden
p3427
sg4
V8:49 AM - 9 Dec 2011
p3428
sa(dp3429
g2
VMy interview on @WOR710 with Jon Gambling discussing #TimeToGetTough, meeting @NewtGingrich and the 2012 election http://bit.ly/vtSyrS 
p3430
sg4
V8:22 AM - 9 Dec 2011
p3431
sa(dp3432
g2
VIf the GOP Establishment really wants to defeat @BarackObama then they should read #TimeToGetTough.
p3433
sg4
V8:04 AM - 9 Dec 2011
p3434
sa(dp3435
g2
V#TimeToGetTough presents bold solutions on taxes, national security, the debt, dealing with OPEC and China and defeating @BarackObama.
p3436
sg4
V8:00 AM - 9 Dec 2011
p3437
sa(dp3438
g2
VLooks like the line has started, be sure to join me for book signing,  @TImeToGetTough, starting at 11am to 2 pm here in Trump Tower.
p3439
sg4
V7:55 AM - 9 Dec 2011
p3440
sa(dp3441
g2
VTrump Tower is located at 725 Fifth Avenue, between 56th and 57th Streets...
p3442
sg4
V6:25 AM - 9 Dec 2011
p3443
sa(dp3444
g2
VBe sure to stop by Trump Tower today -- I'll be signing copies of my new book "Time To Get Tough"  from 11 am to 2 pm.
p3445
sg4
V6:16 AM - 9 Dec 2011
p3446
sa(dp3447
g2
VI'll be signing copies of my new book "Time To Get Tough" today at Trump Tower--11 am to 2 pm. Hope to see you there. #TimeToGetTough
p3448
sg4
V5:49 AM - 9 Dec 2011
p3449
sa(dp3450
g2
VI'll be signing copies of my new book "Time To Get Tough" tomorrow in Trump Tower--11 am to 2 pm. Hope to see you there.
p3451
sg4
V1:51 PM - 8 Dec 2011
p3452
sa(dp3453
g2
V"Newsmax is a great news org and and its pres debate in IA on 12-27 will be fair, balanced , and informative." @ralphreed
p3454
sg4
V1:40 PM - 8 Dec 2011
p3455
sa(dp3456
g2
VNewsmax is a great news organization and its pres debate in IA on Dec 27 will be fair, balanced and informative. @ralphreed
p3457
sg4
V12:50 PM - 8 Dec 2011
p3458
sa(dp3459
g2
VWhy does @BarackObama continue to defend radical Islam? He is calling the Ft. Hood massacre "workplace violence."
p3460
sg4
V12:46 PM - 8 Dec 2011
p3461
sa(dp3462
g2
VYou know what is the worst part of @BarackObama's Tuesday speech playing class warfare--we paid for it with our tax dollars.
p3463
sg4
V12:25 PM - 8 Dec 2011
p3464
sa(dp3465
g2
VJeffrey Lord, former Reagan adviser, has endorsed the Newsmax-@iontv debate with a great article http://bit.ly/tITMNQ 
p3466
sg4
V11:54 AM - 8 Dec 2011
p3467
sa(dp3468
g2
VHappy to have @ralphreed and the FFC's endorsement of the Newsmax-@iontv debate. FFC  is a great organization.
p3469
sg4
V11:10 AM - 8 Dec 2011
p3470
sa(dp3471
g2
VA clip of my upcoming interview with @DavidBrody discussing #TimeToGetTough, @Israel and the Islamist winter  http://bit.ly/sxAlEe 
p3472
sg4
V10:45 AM - 8 Dec 2011
p3473
sa(dp3474
g2
V"What is a bit appealing about this idea of Trump hosting a debate is, consider the diverse audience that perh\u2026 (cont) http://deck.ly/~vneyg 
p3475
sg4
V9:21 AM - 8 Dec 2011
p3476
sa(dp3477
g2
VMy @CNN interview with @PiersTonight discussing the Newsmax-@iontv debate, #TimeToGetTough, the GOP and the economy http://bit.ly/rH39Xa 
p3478
sg4
V9:09 AM - 8 Dec 2011
p3479
sa(dp3480
g2
VExcited to have @SarahPalinUSA's endorsement of the Newsmax-@iontv debate. Sarah is terrific.
p3481
sg4
V8:47 AM - 8 Dec 2011
p3482
sa(dp3483
g2
VMy @FoxNews interview with @TeamCavuto discussing the Newsmax-@iontv debate, #TimeToGetTough and the 2012 race
p3484
sg4
V7:17 AM - 8 Dec 2011
p3485
sa(dp3486
g2
VMy @MorningJoe interview with @JoeNBC & @morningmika discussing the Newsmax-@iontv debate and #TimeToGetTough
p3487
sg4
V7:07 AM - 8 Dec 2011
p3488
sa(dp3489
g2
VI will be signing copies of my new book TIME TO GET TOUGH tomorrow, Dec 9th, in Trump Tower from 11 a.m. to \u2026 (cont) http://deck.ly/~JjINS 
p3490
sg4
V6:35 AM - 8 Dec 2011
p3491
sa(dp3492
g2
VRT @ACUConservative: @alcardenasACU: "The American Conservative Union is proud to sponsor the upcoming Newsma\u2026 (cont) http://deck.ly/~uq4JJ 
p3493
sg4
V1:12 PM - 7 Dec 2011
p3494
sa(dp3495
g2
VRT @ACUConservative: @ACUConservative is proud to sponsor the upcoming Newsmax ION Television 2012 Presidentia\u2026 (cont) http://deck.ly/~CYapQ 
p3496
sg4
V1:10 PM - 7 Dec 2011
p3497
sa(dp3498
g2
VHappy to have @GroverNorquist endorsement of the Newsmax-@iontv debate I am moderating http://bit.ly/uyH3l5 
p3499
sg4
V12:28 PM - 7 Dec 2011
p3500
sa(dp3501
g2
VMy interview with @IngrahamAngle discussing the Newsmax-@iontv debate and #TimeToGetTough http://bit.ly/vsKaw4 
p3502
sg4
V12:10 PM - 7 Dec 2011
p3503
sa(dp3504
g2
VMy interview with @gretawire discussing @BarackObama's failed presidency and #TimeToGetTough  http://bit.ly/rHn4GZ 
p3505
sg4
V11:57 AM - 7 Dec 2011
p3506
sa(dp3507
g2
VMy @foxandfriends interview duscussing my meeting with @newtgingrich, the Newsmax-@iontv debate and #TimeToGetTough
p3508
sg4
V11:44 AM - 7 Dec 2011
p3509
sa(dp3510
g2
VI will be on @FoxNews at 4PM today with @TeamCavuto discussing the Newsmax-@iontv debate.
p3511
sg4
V10:55 AM - 7 Dec 2011
p3512
sa(dp3513
g2
V"The Architect" @KarlRove is directly responsible for losing both houses & @BarackObama becoming President. Ignore him.
p3514
sg4
V10:44 AM - 7 Dec 2011
p3515
sa(dp3516
g2
VWhy is the GOP establishment so threatened by the Newsmax - @iontv debate? More debate is always better.
p3517
sg4
V10:27 AM - 7 Dec 2011
p3518
sa(dp3519
g2
V@BarackObama, the habitual vacationer, should read #TimeToGetTough during his upcoming 17 day Hawaii vacation.
p3520
sg4
V8:08 AM - 7 Dec 2011
p3521
sa(dp3522
g2
VMy @hannityshow interview from Monday discussing #TimeToGetTough and the 2012 election.
p3523
sg4
V8:05 AM - 7 Dec 2011
p3524
sa(dp3525
g2
VI'll be signing copies of my new book  "Time To Get Tough" this Friday  Dec 9 in Trump Tower  from 11 a.m. t\u2026 (cont) http://deck.ly/~abYOp 
p3526
sg4
V5:51 AM - 7 Dec 2011
p3527
sa(dp3528
g2
VWhether we like it or not, oil is the axis on which the world's economies spin. It just is. When the price o\u2026 (cont) http://deck.ly/~qLPsC 
p3529
sg4
V12:52 PM - 6 Dec 2011
p3530
sa(dp3531
g2
VGet it straight: Pakistan is not our friend. When our tremendous Navy SEALS took out Osama bin Laden, they did\u2026 (cont) http://deck.ly/~pOSbX 
p3532
sg4
V12:16 PM - 6 Dec 2011
p3533
sa(dp3534
g2
VCanada's legal immigration plan starts with a simple and smart question: How will any immigrant applying fo\u2026 (cont) http://deck.ly/~uRmzC 
p3535
sg4
V11:47 AM - 6 Dec 2011
p3536
sa(dp3537
g2
VPresident Reagan put it best: "Welfare's purpose should be to eliminate, as far as possible, the need for its own existence."
p3538
sg4
V11:28 AM - 6 Dec 2011
p3539
sa(dp3540
g2
VCall me old school, but I believe in the old warrior's credo that "to the victor go the spoils." In other word\u2026 (cont) http://deck.ly/~yWhwS 
p3541
sg4
V11:18 AM - 6 Dec 2011
p3542
sa(dp3543
g2
VForty -six million Americans---more than at any time ever in the history of this country--now live under the poverty line. #TimeToGetTough
p3544
sg4
V8:52 AM - 6 Dec 2011
p3545
sa(dp3546
g2
VIllegal immigration is a wrecking ball aimed at US taxpayers. Washington needs to get tough and fight for "W\u2026 (cont) http://deck.ly/~pEibz 
p3547
sg4
V8:22 AM - 6 Dec 2011
p3548
sa(dp3549
g2
VDid you know that one of seven Americans is now on food stamps? Think of it. In the United States, the most pr\u2026 (cont) http://deck.ly/~QLt8T 
p3550
sg4
V7:29 AM - 6 Dec 2011
p3551
sa(dp3552
g2
VAll this from a guy who lectured Americans about tightening their belts: @BarackObama bashes rich people an\u2026 (cont) http://deck.ly/~mipXx 
p3553
sg4
V7:18 AM - 6 Dec 2011
p3554
sa(dp3555
g2
VRT @Newsmax_Media: Trumps Warns of Obama Tipping Point that May Destroy America  http://www.newsmax.com/Headline/trump-obama-economy-china/2011/12/04/id/419908 \u2026  via @Newsmax_media
p3556
sg4
V2:10 PM - 5 Dec 2011
p3557
sa(dp3558
g2
V@RonPaul is out of the Newsmax-@iontv debate. Now there won't be any candidates who believe America caused 9.11 or Iran should get nukes.
p3559
sg4
V2:01 PM - 5 Dec 2011
p3560
sa(dp3561
g2
VThe top media and production team! RT @Newsmax_Media: Former CNN Chief Heads Up Newsmax ION Debate http://www.newsmax.com/InsideCover/trump-gingrich-debate-iowa/2011/12/04/id/419909 \u2026
p3562
sg4
V1:26 PM - 5 Dec 2011
p3563
sa(dp3564
g2
VRT @BarbaraJWalters @realDonaldTrump  So excited you are on the show...Most Fascinating People of 2011 http://abcn.ws/vmZxli 
p3565
sg4
V1:22 PM - 5 Dec 2011
p3566
sa(dp3567
g2
VI'm sick of always reading about outsourcing. Why aren't we talking about "onshoring"? We need to bring manufa\u2026 (cont) http://deck.ly/~VUw14 
p3568
sg4
V12:03 PM - 5 Dec 2011
p3569
sa(dp3570
g2
VWatch today's #trumpvlog to learn more about my new book Time To Get Tough and how to get your own copy signe\u2026 (cont) http://deck.ly/~ilRgS 
p3571
sg4
V11:42 AM - 5 Dec 2011
p3572
sa(dp3573
g2
VMy interview with @gretawire discussing the Newsmax-@iontv debate
p3574
sg4
V11:12 AM - 5 Dec 2011
p3575
sa(dp3576
g2
VFirst there was the Declaration of Independence, then there was the Constitution. Now there is #TimeToGetTough. Available today.
p3577
sg4
V10:04 AM - 5 Dec 2011
p3578
sa(dp3579
g2
VIf @BarackObama put down 'Rules for radicals' and read #TimeToGetTough then America would be #1 again---and he might even get re-elected.
p3580
sg4
V9:39 AM - 5 Dec 2011
p3581
sa(dp3582
g2
VMet @newtgingrich at Trump Tower today. He's a big thinker.
p3583
sg4
V9:02 AM - 5 Dec 2011
p3584
sa(dp3585
g2
V#TimeToGetTough: Making America #1 Again--my new book--available today.   The book both China and OPEC do NOT want you to read.
p3586
sg4
V8:47 AM - 5 Dec 2011
p3587
sa(dp3588
g2
VWhen it comes to China, @BarackObama practices "pretty please" diplomacy. He begs and pleads and bows---and it\u2026 (cont) http://deck.ly/~sgjvu 
p3589
sg4
V1:28 PM - 2 Dec 2011
p3590
sa(dp3591
g2
VWe are building China's wealth by buying all their products, even though we make better products in America.
p3592
sg4
V11:16 AM - 2 Dec 2011
p3593
sa(dp3594
g2
VMy new book tells some harsh truths and lays out some bold plans. Time for America to be #1 again.  #TimeToGetTough
p3595
sg4
V10:44 AM - 2 Dec 2011
p3596
sa(dp3597
g2
VHere's my message to @BarackObama: America is a capitalistic country. Get over it and get on with it!  #TimeToGetTough
p3598
sg4
V10:23 AM - 2 Dec 2011
p3599
sa(dp3600
g2
VDon't forget next Friday December 9th: I'll be signing my new book @HowToGetTough in Trump Tower from 11 a.m\u2026 (cont) http://deck.ly/~DAQFQ 
p3601
sg4
V8:57 AM - 2 Dec 2011
p3602
sa(dp3603
g2
VThe new job figures don't include 315,000 people who have given up looking for jobs.
p3604
sg4
V8:36 AM - 2 Dec 2011
p3605
sa(dp3606
g2
VHe ruins the brand: @Robertgbeckel doesn't belong on @FoxNews . As CM for Mondale in '84, you lost 49 states. Sad!
p3607
sg4
V8:23 AM - 2 Dec 2011
p3608
sa(dp3609
g2
VIf "The Art of the Deal" is a must read then #TimeToGetTough" is my opus.  It is available Dec 5th!
p3610
sg4
V7:27 AM - 2 Dec 2011
p3611
sa(dp3612
g2
VMeeting Former Speaker Newt Gingrich next week. On the Agenda---defeating @BarackObama.
p3613
sg4
V7:11 AM - 2 Dec 2011
p3614
sa(dp3615
g2
VWhy doesn't OPEC lower the price of crude to help avert the European crisis? Crude keeps rising during the dow\u2026 (cont) http://deck.ly/~Dg0Qn 
p3616
sg4
V12:15 PM - 1 Dec 2011
p3617
sa(dp3618
g2
VThe worst employee in today's #trumpvlog...
p3619
sg4
V12:06 PM - 1 Dec 2011
p3620
sa(dp3621
g2
VThe Fed continues to recklessly flood the market with dollars. This will eventually create record inflation. It has to stop. #TimeToGetTough
p3622
sg4
V11:14 AM - 1 Dec 2011
p3623
sa(dp3624
g2
VHe ruins the brand: @bobbeckel doesn't belong on @FoxNews. As CM for Mondale in '84, you  lost 49 states. Sad!
p3625
sg4
V10:48 AM - 1 Dec 2011
p3626
sa.