(lp0
(dp1
S'text'
p2
VAs a teenager I saw #MLK speak in Chicago & shook his hand. He urged us to stay engaged with the cause of justice. As vital as ever today.
p3
sS'timestamp'
p4
V8:00 PM - 20 Jan 2014
p5
sa(dp6
g2
VAs a teenager I saw #MLK speak in Chicago & shook his hand. He urged us to stay engaged with the cause of justice. As vital as ever today.
p7
sg4
V8:00 PM - 20 Jan 2014
p8
sa(dp9
g2
VHeaded in from Chappaqua on this snowy morning to talk to @melindagates about why data is so important for women and girls.  #NoCeilings
p10
sg4
V5:32 AM - 13 Feb 2014
p11
sa(dp12
g2
VIt\u2019s so much more fun to watch FOX when it\u2019s someone else being blitzed & sacked! #SuperBowl
p13
sg4
V5:44 PM - 2 Feb 2014
p14
sa(dp15
g2
VSome of the team from Beijing '95 who declared women's rights are human rights. Great reunion today, more work to do.
p16
sg4
V7:11 PM - 25 Feb 2014
p17
sa(dp18
g2
VJoin me, @2SmallToFail, & @UniContigo to help close the word gap. Take the pledge: http://goo.gl/u1Vevn 
p19
sg4
V8:30 PM - 4 Feb 2014
p20
sa(dp21
g2
VSome encouraging news today from China's business leaders on stopping the demand for ivory. http://www.wildaid.org/news/china%E2%80%99s-top-business-leaders-say-no-ivory \u2026
p22
sg4
V8:39 AM - 27 Feb 2014
p23
sa(dp24
g2
VSome encouraging news today from China's business leaders on stopping the demand for ivory. http://www.wildaid.org/news/china%E2%80%99s-top-business-leaders-say-no-ivory \u2026
p25
sg4
V8:39 AM - 27 Feb 2014
p26
sa(dp27
g2
VSome of the team from Beijing '95 who declared women's rights are human rights. Great reunion today, more work to do.
p28
sg4
V7:11 PM - 25 Feb 2014
p29
sa(dp30
g2
V@billclinton all you needed was a good pair of snow boots! But you can watch the event here: http://goo.gl/mL01SC  #NoCeilings
p31
sg4
V1:51 PM - 14 Feb 2014
p32
sa(dp33
g2
VHeaded in from Chappaqua on this snowy morning to talk to @melindagates about why data is so important for women and girls.  #NoCeilings
p34
sg4
V5:32 AM - 13 Feb 2014
p35
sa(dp36
g2
VBriefed by my old @WhiteHouse colleagues yesterday on the new wildlife trafficking report. Good progress being made.
p37
sg4
V7:22 AM - 12 Feb 2014
p38
sa(dp39
g2
VFor #IWD2014, I celebrate the work of Eleanor Roosevelt, a courageous advocate for human rights. Her work continues to inspire. #NoCeilings
p40
sg4
V8:45 AM - 8 Mar 2014
p41
sa(dp42
g2
V.@tulsaeducare @GKFF @2SmallToFail Great day launching #TalkingIsTeachingTulsa.  And, I made some new friends:
p43
sg4
V5:47 PM - 24 Mar 2014
p44
sa(dp45
g2
VGreat to be back in Arizona with @SenJohnMcCain & @cindymccain at #CGIU. Looking forward to the weekend @ASU.
p46
sg4
V11:13 AM - 22 Mar 2014
p47
sa(dp48
g2
V.@UN SecGen Ban Ki-moon @phumzileunwomen great to see you for @UN_Women yesterday. Watch here: http://webtv.un.org/watch/international-women%E2%80%99s-day-2014-equality-for-women-is-progress-for-all/3309104866001 \u2026
p49
sg4
V2:25 PM - 8 Mar 2014
p50
sa(dp51
g2
V.@tulsaeducare @GKFF @2SmallToFail Great day launching #TalkingIsTeachingTulsa.  And, I made some new friends:
p52
sg4
V5:47 PM - 24 Mar 2014
p53
sa(dp54
g2
VToday @CGIU MT @jimmykimmel: @TheEllenShow- 3 Clintons & a Kimmel @BillClinton @ChelseaClinton #selfie
p55
sg4
V9:36 PM - 22 Mar 2014
p56
sa(dp57
g2
VGreat to be back in Arizona with @SenJohnMcCain & @cindymccain at #CGIU. Looking forward to the weekend @ASU.
p58
sg4
V11:13 AM - 22 Mar 2014
p59
sa(dp60
g2
VThe freedom to speak out & to connect is a fundamental right. The people of Turkey deserve that right restored. #TwitterisblockedinTurkey
p61
sg4
V9:49 PM - 21 Mar 2014
p62
sa(dp63
g2
VMy heart is with all those in Arkansas and elsewhere that were in the path of those terrible tornados.
p64
sg4
V5:26 AM - 29 Apr 2014
p65
sa(dp66
g2
VMy most exciting title yet: Grandmother-To-Be! @billclinton and I are thrilled that Chelsea and Marc are expecting their first child!
p67
sg4
V2:13 PM - 17 Apr 2014
p68
sa(dp69
g2
V20 years ago, women made 72 cents on the dollar to men. Today it's still just 77 cents. More work to do.  #EqualPay #NoCeilings
p70
sg4
V5:20 PM - 8 Apr 2014
p71
sa(dp72
g2
VGood luck to my friend & former colleague Deputy Secretary Bill Burns. A treasure of American diplomacy.
p73
sg4
V7:01 PM - 11 Apr 2014
p74
sa(dp75
g2
VWell, that explains what happened to my iPad! RT @BillClinton: I'm following my leader!
p76
sg4
V10:23 AM - 1 Apr 2014
p77
sa(dp78
g2
VMy heart is with all those in Arkansas and elsewhere that were in the path of those terrible tornados.
p79
sg4
V5:26 AM - 29 Apr 2014
p80
sa(dp81
g2
VMy most exciting title yet: Grandmother-To-Be! @billclinton and I are thrilled that Chelsea and Marc are expecting their first child!
p82
sg4
V2:13 PM - 17 Apr 2014
p83
sa(dp84
g2
VGood luck to my friend & former colleague Deputy Secretary Bill Burns. A treasure of American diplomacy.
p85
sg4
V7:01 PM - 11 Apr 2014
p86
sa(dp87
g2
V20 years ago, women made 72 cents on the dollar to men. Today it's still just 77 cents. More work to do.  #EqualPay #NoCeilings
p88
sg4
V5:20 PM - 8 Apr 2014
p89
sa(dp90
g2
VGreat to meet the strong & brave young women from #PussyRiot, who refuse to let their voices be silenced in #Russia.
p91
sg4
V10:09 AM - 4 Apr 2014
p92
sa(dp93
g2
VHappy 90th Birthday to my former colleagues in the Foreign Service!  It was an honor to spend 4 years working with you. #FS90
p94
sg4
V8:12 AM - 24 May 2014
p95
sa(dp96
g2
VAccess to education is a basic right & an unconscionable reason to target innocent girls. We must stand up to terrorism. #BringBackOurGirls
p97
sg4
V9:05 AM - 4 May 2014
p98
sa(dp99
g2
VMeriam Yahya Ibrahim\u2019s death sentence is abhorrent. Sudan should stop threatening religious freedom and fundamental human rights.
p100
sg4
V3:09 PM - 24 May 2014
p101
sa(dp102
g2
VI will miss my friend #MayaAngelou. Truly a #PhenomenalWoman.
p103
sg4
V5:10 AM - 29 May 2014
p104
sa(dp105
g2
VI came across this photo this morning and saw others sharing it, thought I would too. #MayaAngelou
p106
sg4
V5:17 PM - 29 May 2014
p107
sa(dp108
g2
VI came across this photo this morning and saw others sharing it, thought I would too. #MayaAngelou
p109
sg4
V5:17 PM - 29 May 2014
p110
sa(dp111
g2
VI will miss my friend #MayaAngelou. Truly a #PhenomenalWoman.
p112
sg4
V5:10 AM - 29 May 2014
p113
sa(dp114
g2
VMeriam Yahya Ibrahim\u2019s death sentence is abhorrent. Sudan should stop threatening religious freedom and fundamental human rights.
p115
sg4
V3:09 PM - 24 May 2014
p116
sa(dp117
g2
VHappy 90th Birthday to my former colleagues in the Foreign Service!  It was an honor to spend 4 years working with you. #FS90
p118
sg4
V8:12 AM - 24 May 2014
p119
sa(dp120
g2
VIn Little Rock today with Dale and Leslie Chihuly for the opening of his spectacular new exhibit @ClintonCenter.
p121
sg4
V6:39 PM - 16 May 2014
p122
sa(dp123
g2
VHard-working women will pay the price for today's two troubling #SCOTUS decisions -- in wages, health care & dignity.
p124
sg4
V4:34 PM - 30 Jun 2014
p125
sa(dp126
g2
VAt the @ClintonFdn we say, \u201cWe\u2019re all in this together." Read Charles Blow\u2019s NYT column this morning. #YesAllOfUs
p127
sg4
V9:59 AM - 2 Jun 2014
p128
sa(dp129
g2
V.@katyperry Well that\u2019s not a Hard Choice. You already did! Keep letting us hear you Roar.
p130
sg4
V2:19 PM - 22 Jun 2014
p131
sa(dp132
g2
VNational paid family leave benefits families & our economy. Get the facts: http://go.wh.gov/suNHLY . And visit http://WorkingFamiliesSummit.org 
p133
sg4
V5:35 AM - 23 Jun 2014
p134
sa(dp135
g2
VHard-working women will pay the price for today's two troubling #SCOTUS decisions -- in wages, health care & dignity.
p136
sg4
V4:34 PM - 30 Jun 2014
p137
sa(dp138
g2
VHeartbreaking news: a vital voice for justice is silenced. http://m.hrw.org/news/2014/06/26/libya-tribute-salwa-bughaighis \u2026
p139
sg4
V9:17 PM - 26 Jun 2014
p140
sa(dp141
g2
V.@2SmallToFail & our kids have a big advocate in the @WhiteHouse, reminding parents & caregivers #TalkingisTeaching
p142
sg4
V2:09 PM - 26 Jun 2014
p143
sa(dp144
g2
VNational paid family leave benefits families & our economy. Get the facts: http://go.wh.gov/suNHLY . And visit http://WorkingFamiliesSummit.org 
p145
sg4
V5:35 AM - 23 Jun 2014
p146
sa(dp147
g2
VIn #SiliconValley today visiting @Google, @Facebook, & @Twitter.  Looking forward to seeing everyone and answering some questions.
p148
sg4
V12:44 PM - 21 Jul 2014
p149
sa(dp150
g2
VOn my way to Oakland and excited to announce a new @2smalltofail campaign there. #LetsTalkOakland
p151
sg4
V9:52 AM - 23 Jul 2014
p152
sa(dp153
g2
VStopped by @HudsonBooks at JFK before my flight to London.  We're taking the #HardChoices book tour across the pond!
p154
sg4
V4:19 AM - 2 Jul 2014
p155
sa(dp156
g2
VSo great to see @billclinton taking #NoCeilings on the road to India to talk about women in the economy.
p157
sg4
V7:08 AM - 18 Jul 2014
p158
sa(dp159
g2
VCome On Oakland, Let's Do This - a great rallying cry from @urbanstratoak on why talking, reading, & singing matters. http://bit.ly/1zc4CDL 
p160
sg4
V10:11 AM - 26 Jul 2014
p161
sa(dp162
g2
VOn my way to @Twitter! Tweet your questions to me with #AskHillary & watch my conversation with @KatieS here:
p163
sg4
V4:30 PM - 21 Jul 2014
p164
sa(dp165
g2
VCome On Oakland, Let's Do This - a great rallying cry from @urbanstratoak on why talking, reading, & singing matters. http://bit.ly/1zc4CDL 
p166
sg4
V10:11 AM - 26 Jul 2014
p167
sa(dp168
g2
VOn my way to Oakland and excited to announce a new @2smalltofail campaign there. #LetsTalkOakland
p169
sg4
V9:52 AM - 23 Jul 2014
p170
sa(dp171
g2
VOn my way to @Twitter! Tweet your questions to me with #AskHillary & watch my conversation with @KatieS here:
p172
sg4
V4:30 PM - 21 Jul 2014
p173
sa(dp174
g2
VAfter a year of #TweetsFromHillary, I want to hear from you. At 5:20pm PT, I'll be at @Twitter doing a Q&A on #HardChoices. #AskHillary
p175
sg4
V1:00 PM - 21 Jul 2014
p176
sa(dp177
g2
VIn #SiliconValley today visiting @Google, @Facebook, & @Twitter.  Looking forward to seeing everyone and answering some questions.
p178
sg4
V12:44 PM - 21 Jul 2014
p179
sa(dp180
g2
VSo great to see @billclinton taking #NoCeilings on the road to India to talk about women in the economy.
p181
sg4
V7:08 AM - 18 Jul 2014
p182
sa(dp183
g2
VI\u2019ve broken bread w/ all of my fellow #SecStates but we\u2019ve never broken ground! Great visit to @StateDept yesterday.
p184
sg4
V6:53 AM - 4 Sep 2014
p185
sa(dp186
g2
V.@BillClinton and I are over the moon to be grandparents! One of the happiest moments of our life.
p187
sg4
V12:31 PM - 27 Sep 2014
p188
sa(dp189
g2
VProud to announce 3 more #JobOne commitments at #CGI to create more job pathways for youth- Join us at http://www.clintonfoundation.org/jobone  @ClintonGlobal
p190
sg4
V4:27 PM - 23 Sep 2014
p191
sa(dp192
g2
V.@BillClinton and I are over the moon to be grandparents! One of the happiest moments of our life.
p193
sg4
V12:31 PM - 27 Sep 2014
p194
sa(dp195
g2
V#GirlsCHARGE commits to help 15 million girls get access to secondary school. #NoCeilings #CGI2014 #SmartThingToDo http://www.clintonfoundation.org/press-releases/no-ceilings-announces-charge-collaborative-harnessing-ambition-and-resources-girls \u2026
p196
sg4
V4:21 PM - 24 Sep 2014
p197
sa(dp198
g2
VProud to announce 3 more #JobOne commitments at #CGI to create more job pathways for youth- Join us at http://www.clintonfoundation.org/jobone  @ClintonGlobal
p199
sg4
V4:27 PM - 23 Sep 2014
p200
sa(dp201
g2
VCongratulations to Malala Yousafzai and Kailash Satyarthi, tireless champions for the education and freedom of every girl and boy.
p202
sg4
V11:34 AM - 10 Oct 2014
p203
sa(dp204
g2
VProud to launch a new toolkit at #AAP14 to help pediatricians & parents talk, read & sing to babies: http://www.aap.org/literacy  @2SmallToFail
p205
sg4
V4:43 PM - 12 Oct 2014
p206
sa(dp207
g2
VLove these innovative investments to close the #wordgap & opportunity gap for Chicago kids cc @2SmallToFail \u000ahttp://www.chicagobusiness.com/article/20141007/NEWS02/141009847?template=mobile \u2026
p208
sg4
V11:36 AM - 8 Oct 2014
p209
sa(dp210
g2
VHopeful to see NYC lead the way in raising wages for working families. Thanks Mr. Mayor.  http://www1.nyc.gov/office-of-the-mayor/news/459-14/mayor-de-blasio-signs-executive-order-increase-living-wage-expand-it-thousands-more/#/0 \u2026
p211
sg4
V10:16 AM - 4 Oct 2014
p212
sa(dp213
g2
VNew @oppnation data shows encouraging news on youth employment, but so much more to do. Read more about #JobOne here: http://bit.ly/1wa28XO 
p214
sg4
V5:59 AM - 25 Oct 2014
p215
sa(dp216
g2
VProud to launch a new toolkit at #AAP14 to help pediatricians & parents talk, read & sing to babies: http://www.aap.org/literacy  @2SmallToFail
p217
sg4
V4:43 PM - 12 Oct 2014
p218
sa(dp219
g2
VCongratulations to Malala Yousafzai and Kailash Satyarthi, tireless champions for the education and freedom of every girl and boy.
p220
sg4
V11:34 AM - 10 Oct 2014
p221
sa(dp222
g2
VLove these innovative investments to close the #wordgap & opportunity gap for Chicago kids cc @2SmallToFail \u000ahttp://www.chicagobusiness.com/article/20141007/NEWS02/141009847?template=mobile \u2026
p223
sg4
V11:36 AM - 8 Oct 2014
p224
sa(dp225
g2
VToday I'm thankful for the new addition to our family & thinking about little ones everywhere. Happy #Thanksgiving cc: @2SmallToFail
p226
sg4
V10:04 AM - 27 Nov 2014
p227
sa(dp228
g2
VThanks to POTUS for taking action on immigration in the face of inaction. Now let\u2019s turn to permanent bipartisan reform. #ImmigrationAction
p229
sg4
V5:26 PM - 20 Nov 2014
p230
sa(dp231
g2
VQuality child care makes our families & communities stronger. Thanks to the President for signing bipartisan child care bill. @2SmallToFail
p232
sg4
V2:27 PM - 20 Nov 2014
p233
sa(dp234
g2
VWent to @cookstoves summit yesterday w/global & industry leaders focused on a worthy mission. Cooking shouldn't kill.
p235
sg4
V2:05 PM - 22 Nov 2014
p236
sa(dp237
g2
VToday I'm thankful for the new addition to our family & thinking about little ones everywhere. Happy #Thanksgiving cc: @2SmallToFail
p238
sg4
V10:04 AM - 27 Nov 2014
p239
sa(dp240
g2
VWent to @cookstoves summit yesterday w/global & industry leaders focused on a worthy mission. Cooking shouldn't kill.
p241
sg4
V2:05 PM - 22 Nov 2014
p242
sa(dp243
g2
VThanks to POTUS for taking action on immigration in the face of inaction. Now let\u2019s turn to permanent bipartisan reform. #ImmigrationAction
p244
sg4
V5:26 PM - 20 Nov 2014
p245
sa(dp246
g2
VQuality child care makes our families & communities stronger. Thanks to the President for signing bipartisan child care bill. @2SmallToFail
p247
sg4
V2:27 PM - 20 Nov 2014
p248
sa.