(lp0
(dp1
S'text'
p2
V"@cfarmer0608: If you run for president I would vote for you. This country needs a businessman running it not a crocked politician."
p3
sS'timestamp'
p4
V3:47 PM - 31 Jan 2015
p5
sa(dp6
g2
VI will take full credit for Mitt Romney dropping out of the race\u2014looks like he won\u2019t be endorsing Trump any time soon.
p7
sg4
V11:06 AM - 30 Jan 2015
p8
sa(dp9
g2
VEveryone is saying the bad news is that Donald Trump is going to take credit & they are right\u2014Mitt wouldn\u2019t have won anyway.
p10
sg4
V10:59 AM - 30 Jan 2015
p11
sa(dp12
g2
VEntrepreneurs: Success is good. Success with significance is even better. Work on what you will be proud to be associated with.
p13
sg4
V8:51 AM - 30 Jan 2015
p14
sa(dp15
g2
VEntrepreneurs: What is the standard for which you want to be known? Identify that standard and then establish it.
p16
sg4
V8:44 AM - 30 Jan 2015
p17
sa(dp18
g2
V"@finndango: @ConcernedChick @Kateplusmy8  @KenyaMoore And now trying to rewrite herself as "honest person" who refused to do drama. Ha!"
p19
sg4
V3:48 PM - 31 Jan 2015
p20
sa(dp21
g2
VVia @eonline:"@IvankaTrump Wears @MissUniverse 2014's $300,000 Crown, Nails Beauty Pageant Winner Look"
p22
sg4
V2:09 PM - 31 Jan 2015
p23
sa(dp24
g2
V\u201cDonald Trump: 'I Will Take Full Credit' for Romney Dropping Out\u201d http://www.Newsmax.com/Newsfront/donald-trump-twitter-mitt-romney-dropping/2015/01/30/id/621861/#ixzz3QQF1tUeh \u2026 via @Newsmax_Media by @ssfitzgerald
p25
sg4
V9:45 AM - 31 Jan 2015
p26
sa(dp27
g2
VI hope you can go to @oreillyfactor and vote for Donald Trump in order to Make America Great Again! Thanks.
p28
sg4
V6:26 PM - 30 Jan 2015
p29
sa(dp30
g2
V"@J_ennaLeigh: What an amazing hotel. Worth every penny and then some. Thank you @TrumpWaikiki @realDonaldTrump http://twitter.com/J_ennaLeigh/status/561348780449337344/photo/1pic.twitter.com/tlQwYIIKIP "
p31
sg4
V6:23 PM - 30 Jan 2015
p32
sa(dp33
g2
V"@russiannavyblog: @realDonaldTrump @ApprenticeNBC An announcement Mr Trump will run for President and fix the Obama-ruined nation?"
p34
sg4
V6:19 PM - 30 Jan 2015
p35
sa(dp36
g2
V"@XNVGX: @realDonaldTrump @islandxxgirl we need the real Donald Trump to RUN for president "
p37
sg4
V6:18 PM - 30 Jan 2015
p38
sa(dp39
g2
VWhether you think you can or think you can't, you're right. -- Henry Ford
p40
sg4
V1:13 PM - 30 Jan 2015
p41
sa(dp42
g2
VNow that Mitt is gone, all we have to do is get Bush to drop out and Trump to run\u2014and we will win!
p43
sg4
V11:08 AM - 30 Jan 2015
p44
sa(dp45
g2
VWhen I broadly proclaimed Mitt \u201cchoked\u201d \u2013 and would do it again\u2014everybody said yeah, he\u2019s right.
p46
sg4
V11:07 AM - 30 Jan 2015
p47
sa(dp48
g2
V\u201cPresident Trump?\u201d http://www.miamiherald.com/opinion/letters-to-the-editor/article8533709.html \u2026 via @MiamiHerald by Wayne E. Williams
p49
sg4
V11:02 AM - 30 Jan 2015
p50
sa(dp51
g2
VMitt did the right thing\u2014not because he had to-- but because he never would have been given a second chance after his first fiasco
p52
sg4
V11:00 AM - 30 Jan 2015
p53
sa(dp54
g2
VTrump Int'l Hotel & Tower Vancouver will be a new landmark in a fantastic city http://www.trump.com/Hotel_Collection/Trump_Vancouver/Trump_Vancouver.asp \u2026
p55
sg4
V10:12 AM - 30 Jan 2015
p56
sa(dp57
g2
V"@finndango: @ConcernedChick @Kateplusmy8  @KenyaMoore And now trying to rewrite herself as "honest person" who refused to do drama. Ha!"
p58
sg4
V3:48 PM - 31 Jan 2015
p59
sa(dp60
g2
V"@cfarmer0608: If you run for president I would vote for you. This country needs a businessman running it not a crocked politician."
p61
sg4
V3:47 PM - 31 Jan 2015
p62
sa(dp63
g2
VVia @eonline:"@IvankaTrump Wears @MissUniverse 2014's $300,000 Crown, Nails Beauty Pageant Winner Look"
p64
sg4
V2:09 PM - 31 Jan 2015
p65
sa(dp66
g2
V\u201c@BrandiGlanville, @KenyaMoore, Talk @ApprenticeNBC Feud\u201d http://www.christianpost.com/news/brandi-glanville-kenya-moore-talk-celebrity-apprentice-feud-133350/#ixzz3QRECEamr \u2026 via @ChristianPost by Virnelli Mercader
p67
sg4
V1:52 PM - 31 Jan 2015
p68
sa(dp69
g2
V\u201cDonald Trump: 'I Will Take Full Credit' for Romney Dropping Out\u201d http://www.Newsmax.com/Newsfront/donald-trump-twitter-mitt-romney-dropping/2015/01/30/id/621861/#ixzz3QQF1tUeh \u2026 via @Newsmax_Media by @ssfitzgerald
p70
sg4
V9:45 AM - 31 Jan 2015
p71
sa(dp72
g2
V"@DaRealKhefner: @realDonaldTrump you have my vote "
p73
sg4
V4:06 AM - 31 Jan 2015
p74
sa(dp75
g2
V"@JsdEdge: With all due respect, Why are you bluffing about running for President? I would vote for you!! We need a game Changer!  WATCH!
p76
sg4
V4:05 AM - 31 Jan 2015
p77
sa(dp78
g2
V"@craig_eaton12: @realDonaldTrump Please run for POTUS Mr Trump. The country needs you more then ever"
p79
sg4
V4:04 AM - 31 Jan 2015
p80
sa(dp81
g2
V"@Priece714: if @realDonaldTrump ran for president that would make me so happy"
p82
sg4
V3:58 AM - 31 Jan 2015
p83
sa(dp84
g2
V"@catham11: @realDonaldTrump Congrats Trump it's a great location"
p85
sg4
V3:55 AM - 31 Jan 2015
p86
sa(dp87
g2
V"@TdavisTonya: @realDonaldTrump @oreillyfactor TRUMP FOR AMERICA!"
p88
sg4
V3:53 AM - 31 Jan 2015
p89
sa(dp90
g2
VI hope you can go to @oreillyfactor and vote for Donald Trump in order to Make America Great Again! Thanks.
p91
sg4
V6:26 PM - 30 Jan 2015
p92
sa(dp93
g2
V"@TpGraf82: @realDonaldTrump I can't wait till #tweetgate #celebrityapprentice simply the best!"
p94
sg4
V6:23 PM - 30 Jan 2015
p95
sa(dp96
g2
V"@Snowape_kitkat: @realDonaldTrump @Patti_Page @oreillyfactor voted"  Thanks.
p97
sg4
V6:20 PM - 30 Jan 2015
p98
sa(dp99
g2
V"@russiannavyblog: @realDonaldTrump @ApprenticeNBC An announcement Mr Trump will run for President and fix the Obama-ruined nation?"
p100
sg4
V6:19 PM - 30 Jan 2015
p101
sa(dp102
g2
V"@XNVGX: @realDonaldTrump @islandxxgirl we need the real Donald Trump to RUN for president "
p103
sg4
V6:18 PM - 30 Jan 2015
p104
sa(dp105
g2
V"@OgreUasshole: @oreillyfactor It's time for @realDonaldTrump ."
p106
sg4
V6:16 PM - 30 Jan 2015
p107
sa(dp108
g2
V"@Sethanatorr:Trump should run for president. We need him. Obama has accomplished nothing. We all know Mr. Trump knows how to get stuff done
p109
sg4
V6:46 PM - 24 Feb 2015
p110
sa(dp111
g2
VPut the glamour, beauty & mystery back in the Oscars and the ratings will zoom. Also, & most importantly, the Oscars need credibility.
p112
sg4
V7:33 AM - 24 Feb 2015
p113
sa(dp114
g2
VI told everybody the Oscars were no good\u2014Nielsen ratings confirmed, one of the lowest ratings in history.
p115
sg4
V7:26 AM - 24 Feb 2015
p116
sa(dp117
g2
VThe @HuffingtonPost is a total joke & laughing stock of journalism, as is gross Arianna Huffington. They don\u2019t report the facts!
p118
sg4
V7:09 AM - 24 Feb 2015
p119
sa(dp120
g2
VI have a lawsuit in Mexico\u2019s corrupt court system that I won but so far can\u2019t collect. Don\u2019t do business with Mexico!
p121
sg4
V6:54 AM - 24 Feb 2015
p122
sa(dp123
g2
VVia @CBSNews by @ReenaJF: "Donald Trump scolds Republicans: 'Toughen up'"
p124
sg4
V12:12 PM - 28 Feb 2015
p125
sa(dp126
g2
VVia @PPDNews: "Donald Trump: \u2018I Am Not Doing This For Fun,\u2019 We Can\u2019t Fix U.S. \u2018Unless We Put Right Person\u2019 In WH"
p127
sg4
V11:08 AM - 28 Feb 2015
p128
sa(dp129
g2
VVia @BreitbartNews: "DONALD TRUMP: EXEC AMNESTY WILL MAKE ILLEGAL IMMIGRATION \u2018WORSE THAN IT\u2019S EVER BEEN"
p130
sg4
V10:30 AM - 28 Feb 2015
p131
sa(dp132
g2
V"Donald Trump ready to end @ApprenticeNBC for White House run" http://www.washingtonexaminer.com/donald-trump-ready-to-end-apprentice-for-white-house-run/article/2560839 \u2026 via via @dcexaminer by @eScarry
p133
sg4
V3:03 PM - 27 Feb 2015
p134
sa(dp135
g2
VVia @DailyCaller by @alweaver22:\u201cTrump: Obama One Of \u2018The Worst Things That\u2019s Ever Happened To Israel\u2019\u201d
p136
sg4
V3:07 PM - 25 Feb 2015
p137
sa(dp138
g2
VVia @washingtonpost by @costareports: \u201cTrump says he is serious about 2016 bid, is hiring staff and delaying TV gig\u201d
p139
sg4
V1:29 PM - 25 Feb 2015
p140
sa(dp141
g2
VSo many people are angry at my comments on Mexico\u2014but face it\u2014Mexico is totally ripping off the US. Our politicians are dummies!
p142
sg4
V7:30 AM - 25 Feb 2015
p143
sa(dp144
g2
V"'Good Chance' Trump Will Run for President" http://www.newsmax.com/melaniebatley/trump-2016-president-isis/2015/02/24/id/626586/ \u2026 via @Newsmax_Media by @melaniebatley
p145
sg4
V8:04 PM - 24 Feb 2015
p146
sa(dp147
g2
VVia @BreitbartNews: "\u2018MAJOR COUP\u2019: DONALD TRUMP PICKS UP TOP IOWA GRASSROOTS OPERATIVE FOR POTENTIAL 2016 CAMPAIGN"
p148
sg4
V7:22 PM - 24 Feb 2015
p149
sa(dp150
g2
VThe Mexican legal system is corrupt, as is much of Mexico. Pay me the money that is owed me now - and stop sending criminals over our border
p151
sg4
V4:47 PM - 24 Feb 2015
p152
sa(dp153
g2
VThe evening news broadcasts must stop talking about weather\u2014boring and too many other topics.
p154
sg4
V8:26 AM - 24 Feb 2015
p155
sa(dp156
g2
VI could fix tv talk shows that are doing poorly\u2014there is tremendous talent out there waiting to be tapped\u2014and nobody sees it!
p157
sg4
V8:25 AM - 24 Feb 2015
p158
sa(dp159
g2
VThe Oscars were a great night for Mexico & why not\u2014they are ripping off the US more than almost any other nation.
p160
sg4
V6:53 AM - 24 Feb 2015
p161
sa(dp162
g2
VVia @washingtonpost by @jdelreal: "About that Donald Trump speech at CPAC \u2026"
p163
sg4
V3:47 PM - 28 Feb 2015
p164
sa(dp165
g2
VVia @CBSNews by @ReenaJF: "Donald Trump scolds Republicans: 'Toughen up'"
p166
sg4
V12:12 PM - 28 Feb 2015
p167
sa(dp168
g2
VVia @PPDNews: "Donald Trump: \u2018I Am Not Doing This For Fun,\u2019 We Can\u2019t Fix U.S. \u2018Unless We Put Right Person\u2019 In WH"
p169
sg4
V11:08 AM - 28 Feb 2015
p170
sa(dp171
g2
VVia @BreitbartNews: "DONALD TRUMP: EXEC AMNESTY WILL MAKE ILLEGAL IMMIGRATION \u2018WORSE THAN IT\u2019S EVER BEEN"
p172
sg4
V10:30 AM - 28 Feb 2015
p173
sa(dp174
g2
VVia @NRO by @LovelaceRyanD: "Trump Slams Bush: \u2018I Don\u2019t See Him Winning; I Don\u2019t See There\u2019s Any Way\u2019"
p175
sg4
V5:16 AM - 28 Feb 2015
p176
sa(dp177
g2
V"Donald Trump ready to end @ApprenticeNBC for White House run" http://www.washingtonexaminer.com/donald-trump-ready-to-end-apprentice-for-white-house-run/article/2560839 \u2026 via via @dcexaminer by @eScarry
p178
sg4
V3:03 PM - 27 Feb 2015
p179
sa(dp180
g2
VVia @TIME by @lullintheaction: "#REALTIME: Donald Trump Weighs a 2016 Run At #CPAC2015"
p181
sg4
V2:27 PM - 27 Feb 2015
p182
sa(dp183
g2
VInterview w/Melanie Batley via Newsmax http://www.newsmax.com/MelanieBatley/trump-2016-president-isis/2015/02/24/id/626586/ \u2026
p184
sg4
V12:28 PM - 27 Feb 2015
p185
sa(dp186
g2
V#TBT With the cast of GoodFellas https://instagram.com/p/zlFvPFGhUC/?modal=true \u2026
p187
sg4
V1:41 PM - 26 Feb 2015
p188
sa(dp189
g2
VVia @UnionLeader by @tuohy: "Trump hires Lewandowski as presidential run eyed" http://www.unionleader.com/article/20150226/NEWS0602/150229439#sthash.ePYoTkTW.dpuf \u2026 #FITN #MakeAmericaGreatAgain
p190
sg4
V5:10 AM - 26 Feb 2015
p191
sa(dp192
g2
VVia @DailyCaller by @alweaver22:\u201cTrump: Obama One Of \u2018The Worst Things That\u2019s Ever Happened To Israel\u2019\u201d
p193
sg4
V3:07 PM - 25 Feb 2015
p194
sa(dp195
g2
VVia @washingtonpost by @costareports: \u201cTrump says he is serious about 2016 bid, is hiring staff and delaying TV gig\u201d
p196
sg4
V1:29 PM - 25 Feb 2015
p197
sa(dp198
g2
VTrump Int'l Hotel, Washington D.C.: The iconic Old Post Office Building will be one of the world's great hotels. http://www.trump.com/Hotel_Collection/Trump_Washington_DC/Trump_Washington_DC.asp \u2026
p199
sg4
V8:38 AM - 25 Feb 2015
p200
sa(dp201
g2
VVia @DMRegister by @JenniferJJacobs: \u201cTrump hires Iowan with knack for shoestring campaigns\u201d
p202
sg4
V8:27 AM - 25 Feb 2015
p203
sa(dp204
g2
VSo many people are angry at my comments on Mexico\u2014but face it\u2014Mexico is totally ripping off the US. Our politicians are dummies!
p205
sg4
V7:30 AM - 25 Feb 2015
p206
sa(dp207
g2
V"@PeritusTraining: @realDonaldTrump Donald can't be president because the left doesn't want to see America great again." Very interesting!
p208
sg4
V4:51 AM - 25 Feb 2015
p209
sa(dp210
g2
V"@Trump4Pressie: Hi @realDonaldTrump save God's nation and run for president in 2016 #Trump2016 #NoObama"
p211
sg4
V4:49 AM - 25 Feb 2015
p212
sa(dp213
g2
V"@pcufinn: @realDonaldTrump Why don't you put a TRUMP fence up and do us all a favor." Great idea.
p214
sg4
V4:47 AM - 25 Feb 2015
p215
sa(dp216
g2
VEntrepreneurs:  See yourself as victorious. Look at the solution, not the problem. Be tough, be strong, be tenacious.
p217
sg4
V12:24 PM - 31 Mar 2015
p218
sa(dp219
g2
VEntrepreneurs: Ask yourself: What am I pretending not to see? There may be some great opportunities right around you.
p220
sg4
V12:21 PM - 31 Mar 2015
p221
sa(dp222
g2
V\u201cSimply take a big goal and mold yourself to become the person who can accomplish that goal.\u201d \u2013 Think Big
p223
sg4
V11:45 AM - 31 Mar 2015
p224
sa(dp225
g2
V"@marioraez1: Just came back from Chicago and ur building there is gorgeous! Best looking one in the city. Class and luxury all the way"
p226
sg4
V7:11 PM - 30 Mar 2015
p227
sa(dp228
g2
VThe border is wide open for cartels & terrorists. Secure our border now. Build a massive wall & deduct the costs from Mexican foreign aid!
p229
sg4
V1:47 PM - 30 Mar 2015
p230
sa(dp231
g2
VI will be on @oreillyfactor tonight at 8:00. Enjoy!
p232
sg4
V3:07 PM - 31 Mar 2015
p233
sa(dp234
g2
VI will be on Bill O'Reilly's show tonight at 8 PM--talking about Iran and politics. @oreillyfactor
p235
sg4
V12:33 PM - 31 Mar 2015
p236
sa(dp237
g2
VEntrepreneurs: Gain and use information to your advantage--see every day as an opportunity to learn.
p238
sg4
V12:30 PM - 31 Mar 2015
p239
sa(dp240
g2
VThe right leadership can help economy while creating security around the world. Let\u2019s make America great again! http://www.donaldjtrump.com/ 
p241
sg4
V12:15 PM - 31 Mar 2015
p242
sa(dp243
g2
VThere is only one fix for ObamaCare - REPEAL & REPLACE with a free market oriented alternative!
p244
sg4
V11:00 AM - 31 Mar 2015
p245
sa(dp246
g2
VVia @FoxNewsInsider as seen on @foxandfriends: \u201cTrump: Iran Nuke Talks Should Have Taken One Day\u201d
p247
sg4
V10:43 AM - 31 Mar 2015
p248
sa(dp249
g2
VIran is desperate to develop nukes. Congress must increase sanctions against Iran.
p250
sg4
V9:28 AM - 31 Mar 2015
p251
sa(dp252
g2
V"@Ajcarpenter0 Hoping to see @realDonaldTrump in office for the next 8 years #Trump2016"
p253
sg4
V8:08 AM - 31 Mar 2015
p254
sa(dp255
g2
V"@Tom38Ts I wanted Trump to be the President in 2012 the country needs Trump to be the next president in 2016"
p256
sg4
V8:01 AM - 31 Mar 2015
p257
sa(dp258
g2
V"@thembazoko1: "@realDonaldTrump: We create success or failure on the course primarily by our thoughts. -- Gary Player""
p259
sg4
V7:10 PM - 30 Mar 2015
p260
sa(dp261
g2
V"@FunkyFakir: @realDonaldTrump Donald Trump and Condoleezza Rice. What a ticket that would be! http://twitter.com/FunkyFakir/status/582700314538713088/photo/1pic.twitter.com/Fc4EB3gvda "
p262
sg4
V7:08 PM - 30 Mar 2015
p263
sa(dp264
g2
VWe have a sacred duty to care for our vets and their families. Veterans deserve universal access to care anywhere and anytime!
p265
sg4
V1:32 PM - 30 Mar 2015
p266
sa(dp267
g2
V"@mysticmimsy:  @JavaMedic I tcompletely agree. Trump is the only man with enough gusto to force the wind of change. #TrumpForPresident."
p268
sg4
V5:27 AM - 30 Mar 2015
p269
sa(dp270
g2
V"@MegaPandaduck: @realDonaldTrump @oreillyfactor We desperately need another great president. Come on Mr. Trump, America needs you!"
p271
sg4
V3:14 PM - 31 Mar 2015
p272
sa(dp273
g2
V"@KhadeejaNicolle: @realDonaldTrump Your exactly correct. Don't let me down by not running for President!"
p274
sg4
V3:11 PM - 31 Mar 2015
p275
sa(dp276
g2
V"@donniewilmoth: @realDonaldTrump I hope this is your official announcement for your candidacy."
p277
sg4
V3:10 PM - 31 Mar 2015
p278
sa(dp279
g2
V"@GiamattiJenna: @realDonaldTrump @oreillyfactor it's going 2 b good"
p280
sg4
V3:09 PM - 31 Mar 2015
p281
sa(dp282
g2
VI will be on @oreillyfactor tonight at 8:00. Enjoy!
p283
sg4
V3:07 PM - 31 Mar 2015
p284
sa(dp285
g2
VI will be on Bill O'Reilly's show tonight at 8 PM--talking about Iran and politics. @oreillyfactor
p286
sg4
V12:33 PM - 31 Mar 2015
p287
sa(dp288
g2
VEntrepreneurs: Gain and use information to your advantage--see every day as an opportunity to learn.
p289
sg4
V12:30 PM - 31 Mar 2015
p290
sa(dp291
g2
VEntrepreneurs:  See yourself as victorious. Look at the solution, not the problem. Be tough, be strong, be tenacious.
p292
sg4
V12:24 PM - 31 Mar 2015
p293
sa(dp294
g2
VEntrepreneurs: Ask yourself: What am I pretending not to see? There may be some great opportunities right around you.
p295
sg4
V12:21 PM - 31 Mar 2015
p296
sa(dp297
g2
VThe right leadership can help economy while creating security around the world. Let\u2019s make America great again! http://www.donaldjtrump.com/ 
p298
sg4
V12:15 PM - 31 Mar 2015
p299
sa(dp300
g2
V\u201cSimply take a big goal and mold yourself to become the person who can accomplish that goal.\u201d \u2013 Think Big
p301
sg4
V11:45 AM - 31 Mar 2015
p302
sa(dp303
g2
VThere is only one fix for ObamaCare - REPEAL & REPLACE with a free market oriented alternative!
p304
sg4
V11:00 AM - 31 Mar 2015
p305
sa(dp306
g2
VVia @FoxNewsInsider as seen on @foxandfriends: \u201cTrump: Iran Nuke Talks Should Have Taken One Day\u201d
p307
sg4
V10:43 AM - 31 Mar 2015
p308
sa(dp309
g2
VIran is desperate to develop nukes. Congress must increase sanctions against Iran.
p310
sg4
V9:28 AM - 31 Mar 2015
p311
sa(dp312
g2
V"@Ajcarpenter0 Hoping to see @realDonaldTrump in office for the next 8 years #Trump2016"
p313
sg4
V8:08 AM - 31 Mar 2015
p314
sa(dp315
g2
V"@Tom38Ts I wanted Trump to be the President in 2012 the country needs Trump to be the next president in 2016"
p316
sg4
V8:01 AM - 31 Mar 2015
p317
sa(dp318
g2
V"@markpryceagee: I believe Donald Trump would be the best candidate to run for president under the Republican Party. #Trump16" I do also!
p319
sg4
V5:25 AM - 30 Apr 2015
p320
sa(dp321
g2
VI have been a guest on The View many times when it was  successful show. Now the show is dying for lack of ratings. Too bad!
p322
sg4
V5:17 AM - 30 Apr 2015
p323
sa(dp324
g2
V"@DrJackFriedman: I'm so glad you are in it to win it. America needs to turn a profit. Enough with clueless, corrupt, bonehead politicians.
p325
sg4
V7:14 PM - 29 Apr 2015
p326
sa(dp327
g2
VI am going to Iowa today - sold out crowds. People don't want our country ripped-off anymore. Must stop now!
p328
sg4
V5:13 AM - 29 Apr 2015
p329
sa(dp330
g2
V"@LynusCantwell: The world is laughing. Obama is a joke. No Hillary the sequel. Run Donald please. We need no nonsense leadership."
p331
sg4
V5:02 AM - 29 Apr 2015
p332
sa(dp333
g2
VThey now say using the word "thug" is, like so many other words, not politically correct (even though Obama uses it). It is racist. BULL!
p334
sg4
V5:10 AM - 30 Apr 2015
p335
sa(dp336
g2
V"@1MuskyHunter: @realDonaldTrump we need your leadership in this country now, please enter the prez ring.  "
p337
sg4
V10:28 PM - 29 Apr 2015
p338
sa(dp339
g2
VIncredible handheld video of the Las Vegas Strip in 1969. The skyline looks better with @TrumpLasVegas!
p340
sg4
V1:56 PM - 29 Apr 2015
p341
sa(dp342
g2
VMet a big fan today!
p343
sg4
V12:48 PM - 29 Apr 2015
p344
sa(dp345
g2
V"@MLawts12: If @realDonaldTrump doesn't run in 2016 the country is screwed" I agree!
p346
sg4
V5:09 AM - 29 Apr 2015
p347
sa(dp348
g2
V"@jtruelove713: If @realDonaldTrump runs for President I will VOTE for the First time ever. Until then..........."
p349
sg4
V1:22 AM - 29 Apr 2015
p350
sa(dp351
g2
VI wonder what the rest of the world is thinking about the United States as they watch the disgusting and out of control Baltimore riots?
p352
sg4
V12:49 AM - 29 Apr 2015
p353
sa(dp354
g2
VHopefully there won't be any problems in Baltimore tonight. Be calm, be cool-do not let anybody get hurt.There is just too much to live for!
p355
sg4
V5:33 PM - 28 Apr 2015
p356
sa(dp357
g2
VThe best social program, by far, is a JOB! Our jobs are being taken away from us by China and many other countries - incompetent leader.
p358
sg4
V6:03 AM - 28 Apr 2015
p359
sa(dp360
g2
VPresident Obama, you have a big job to do. Go to Baltimore and bring both sides together. With proper leadership, it can be done! Do it.
p361
sg4
V4:55 AM - 28 Apr 2015
p362
sa(dp363
g2
VOur country has to come together. We have to start working with, and really liking,  each other. The whole world is watching Baltimore.
p364
sg4
V4:50 AM - 28 Apr 2015
p365
sa(dp366
g2
V"@Vanderpunked: Can we drop @realDonaldTrump off in the middle of #Baltimore so he can show Obama how it's done?" I would fix it fast!
p367
sg4
V4:31 AM - 28 Apr 2015
p368
sa(dp369
g2
VThe Mayor of Baltimore said she wanted to give the rioters "space to destroy" - another real genius!
p370
sg4
V3:14 AM - 28 Apr 2015
p371
sa(dp372
g2
V.@ThrillistChi named @SixteenChicago @TrumpChicago one of the \u201cbest value Michelin-starred restaurants in Chicago\u201d
p373
sg4
V8:15 AM - 30 Apr 2015
p374
sa(dp375
g2
VCongrats @TrumpWaikiki for winning @AmericanExpress Fine Hotels & Resorts 'Hotel Partner of The Year for 2014'  award!
p376
sg4
V8:03 AM - 30 Apr 2015
p377
sa(dp378
g2
V"@BJKizer74: You should run as an independent and kick Hiliary's ass & the wussy Democratic Republicans too! Just say no to RINO's!"
p379
sg4
V5:49 AM - 30 Apr 2015
p380
sa(dp381
g2
V"@KeepCalmBC:  @TheView is a pitiful shell of its former self! ALL NEW hosts are needed! Just cancel it & put it & us out of our misery!"
p382
sg4
V5:48 AM - 30 Apr 2015
p383
sa(dp384
g2
V"@KillingTime2015: @realDonaldTrump @NicolleDWallace @TheView clean house"  Not W.G.
p385
sg4
V5:47 AM - 30 Apr 2015
p386
sa(dp387
g2
V"@j_middleton7: @realDonaldTrump please get in the drivers seat of this country!"
p388
sg4
V5:40 AM - 30 Apr 2015
p389
sa(dp390
g2
V"@WeWantMitt2016: Like a kid waiting for Christmas morning,we're awaiting your announcement in June or July. #Trump https://twitter.com/realDonaldTrump/status/593753125300871168 \u2026"
p391
sg4
V5:38 AM - 30 Apr 2015
p392
sa(dp393
g2
V"@Gmandunkley: @realDonaldTrump Hi Donald, spare a thought for little old guy here. I love your hair and wish I had the same." GREAT!
p394
sg4
V5:37 AM - 30 Apr 2015
p395
sa(dp396
g2
V"@615realjg: Donald Trump Is The Only Man That Understands Life Right Now" Thank you.
p397
sg4
V5:30 AM - 30 Apr 2015
p398
sa(dp399
g2
V"@markpryceagee: I believe Donald Trump would be the best candidate to run for president under the Republican Party. #Trump16" I do also!
p400
sg4
V5:25 AM - 30 Apr 2015
p401
sa(dp402
g2
V"@ghostlyprep: @realDonaldTrump is amazing  you can tell me he's not when you're as successful as him"
p403
sg4
V5:24 AM - 30 Apr 2015
p404
sa(dp405
g2
V"@circuspony2: @realDonaldTrump Did you see all the whites that were robbed & assaulted during the riots, Mr President? #Trump2016"
p406
sg4
V5:23 AM - 30 Apr 2015
p407
sa(dp408
g2
VI have been a guest on The View many times when it was  successful show. Now the show is dying for lack of ratings. Too bad!
p409
sg4
V5:17 AM - 30 Apr 2015
p410
sa(dp411
g2
VThey now say using the word "thug" is, like so many other words, not politically correct (even though Obama uses it). It is racist. BULL!
p412
sg4
V5:10 AM - 30 Apr 2015
p413
sa(dp414
g2
V"@SAlmashaifari: Donald Trump All American Billionaire FULL https://youtu.be/0RHkZ5Ct-9s  via @YouTube"  Wow, so nice - thank you!
p415
sg4
V5:06 AM - 30 Apr 2015
p416
sa(dp417
g2
V"@1MuskyHunter: @realDonaldTrump we need your leadership in this country now, please enter the prez ring.  "
p418
sg4
V10:28 PM - 29 Apr 2015
p419
sa(dp420
g2
V"@StaceyLambright: I had the pleasure of meeting @realDonaldTrump and hearing him speak a few times. We need to see him on the 2016 ballot!"
p421
sg4
V7:20 PM - 29 Apr 2015
p422
sa(dp423
g2
V"@SeppBlatterP: I love my time at @TrumpCollection! The staff handle my valuables with utmost care, I always come away greatly satisfied!
p424
sg4
V12:47 PM - 31 May 2015
p425
sa(dp426
g2
VWow, the economy is really bad! GROSS DOMESTIC PRODUCT down 0.7% in 1st. quarter - and getting worse. I TOLD YOU SO! Only I can fix.
p427
sg4
V3:17 PM - 29 May 2015
p428
sa(dp429
g2
VEntrepreneurs: Ask yourself: What can I provide that does not yet exist? Be open to new ideas. Be innovative!
p430
sg4
V7:45 AM - 29 May 2015
p431
sa(dp432
g2
VEntrepreneurs: Set the example. You can motivate others as well as yourself by remembering that you are setting the example.
p433
sg4
V7:43 AM - 29 May 2015
p434
sa(dp435
g2
V"@alphainparis: @seanhannity DonaldTrump is the 21st century Ronald Reagan. Intelligent. Bold. Surrounded by good people. Gets the job done.
p436
sg4
V8:03 PM - 28 May 2015
p437
sa(dp438
g2
V"@PlaisanceAnn: @realDonaldTrump Trump for President!!!"
p439
sg4
V12:56 PM - 31 May 2015
p440
sa(dp441
g2
V"@jsilva74366572:  @nicksibrodi vote for Trump unless u want to keep getting fucked by isis, china, lobbyists and everyone else"
p442
sg4
V3:48 AM - 31 May 2015
p443
sa(dp444
g2
V"@jsilva74366572: @realDonaldTrump vote for trump or we will end up having to learn mandarin. People please wake up.
p445
sg4
V12:08 AM - 31 May 2015
p446
sa(dp447
g2
VFor those of you that have conveniently fotgotten, dummy Jon Stewart is a bad filmmaker. His last effort was a real bomb (in all ways)!
p448
sg4
V12:00 AM - 31 May 2015
p449
sa(dp450
g2
VI would like to offer Vice President Biden my warmest condolences on the loss of his wonderful son, Beau. Met him once, great guy!
p451
sg4
V7:47 PM - 30 May 2015
p452
sa(dp453
g2
VAll the haters and losers must admit that, unlike others,  I never attacked dopey Jon Stewart for his phony last name. Would never do that!
p454
sg4
V7:33 PM - 30 May 2015
p455
sa(dp456
g2
VWhile Jon Stewart is a joke, not very bright and totally overrated, some losers and haters will miss him and his dumb clown humor. Too bad!
p457
sg4
V6:48 PM - 30 May 2015
p458
sa(dp459
g2
V"@GeoScarborough: Joe Scarborough Thinks Donald Trump Can 'Shake Things Up' In 2016 Election http://www.huffingtonpost.com/2015/05/29/joe-scarborough-donald-trump-2016-presidential-election_n_7468172.html \u2026 via @HuffPostMedia
p460
sg4
V3:38 PM - 30 May 2015
p461
sa(dp462
g2
VJon Stewart is the most overrated joke on television. A wiseguy with no talent. Not smart, but convinces dopes he is! Fading out fast.
p463
sg4
V3:25 PM - 30 May 2015
p464
sa(dp465
g2
V"@Jess_Blanch94: @realDonaldTrump Time for you to announce and run for president Mr. Trump! #YouHaveMyVote"
p466
sg4
V1:59 AM - 30 May 2015
p467
sa(dp468
g2
V\u201cConfidence is contagious. So is lack of confidence.\u201d - Vince Lombardi
p469
sg4
V1:11 PM - 29 May 2015
p470
sa(dp471
g2
VEntrepreneurs: Get--and keep--your momentum going. Without momentum, a lot of great ideas go nowhere.
p472
sg4
V7:42 AM - 29 May 2015
p473
sa(dp474
g2
VRequired reading 4 success in politics & life read @kimguilfoyle's book #MakingTheCase. Brilliant Advice ! \u000a http://www.amazon.com/Making-Case-Your-Best-Advocate/dp/0062343971 \u2026
p475
sg4
V7:29 AM - 29 May 2015
p476
sa(dp477
g2
V"@PlaisanceAnn: @realDonaldTrump Trump for President!!!"
p478
sg4
V12:56 PM - 31 May 2015
p479
sa(dp480
g2
V"@SeppBlatterP: I love my time at @TrumpCollection! The staff handle my valuables with utmost care, I always come away greatly satisfied!
p481
sg4
V12:47 PM - 31 May 2015
p482
sa(dp483
g2
V"@JollyGoodman181: @realDonaldTrump Trump for President"
p484
sg4
V12:32 PM - 31 May 2015
p485
sa(dp486
g2
V"@c_shepler: @realDonaldTrump This trooper needs you to run "
p487
sg4
V12:31 PM - 31 May 2015
p488
sa(dp489
g2
V"@jsilva74366572:  @nicksibrodi vote for Trump unless u want to keep getting fucked by isis, china, lobbyists and everyone else"
p490
sg4
V3:48 AM - 31 May 2015
p491
sa(dp492
g2
V"@amazechristianl: @realDonaldTrump Are you happy with current polls? Congrats on the success so far."
p493
sg4
V12:28 AM - 31 May 2015
p494
sa(dp495
g2
V"@nicksibrodi: @realDonaldTrump  Can't America wake up and realize we need a true patriot like yourself to lead this country. #trumpforprez"
p496
sg4
V12:26 AM - 31 May 2015
p497
sa(dp498
g2
V"@stefan_beezy: @realDonaldTrump Trump for president, greatness"
p499
sg4
V12:25 AM - 31 May 2015
p500
sa(dp501
g2
V"@realBrockDriver: Would give anything for @realDonaldTrump to run for President!! If there's anyone who can fix our country, it's him!!"
p502
sg4
V12:24 AM - 31 May 2015
p503
sa(dp504
g2
V"@JRMcClaren: @realDonaldTrump Stewart is not worth the attention you are giving him." Probably true, but it's fun to expose the overrated!
p505
sg4
V12:23 AM - 31 May 2015
p506
sa(dp507
g2
V"@YankeeRunnerLV: Bought 2 bottles of #Empire Cologne/Deodorant so that I can smell like a winner&a PRESIDENT! #Trump2016 #PleaseRun #Thanks
p508
sg4
V12:19 AM - 31 May 2015
p509
sa(dp510
g2
V"@JoffCallaghan: Not sure why I didn't follow @realDonaldTrump before now. Seems like something I should have done ages ago..."
p511
sg4
V12:18 AM - 31 May 2015
p512
sa(dp513
g2
V"@kissangel864: @realDonaldTrump @jsilva74366572 then trump need to put his hat in the ring so we can vote for him"
p514
sg4
V12:16 AM - 31 May 2015
p515
sa(dp516
g2
V"@dmhar: @dariusrucker what about playing at @realDonaldTrump's in Florida. His golf course is amazing !"
p517
sg4
V12:13 AM - 31 May 2015
p518
sa(dp519
g2
V"@jsilva74366572: @realDonaldTrump vote for trump or we will end up having to learn mandarin. People please wake up.
p520
sg4
V12:08 AM - 31 May 2015
p521
sa(dp522
g2
V"@JollyGoodman181: @realDonaldTrump Trump for President!!!"
p523
sg4
V12:05 AM - 31 May 2015
p524
sa(dp525
g2
V"@webster07 @realDonaldTrump wish there were more people in the public eye with this attitude. It's only way 2 defeat political correctness"
p526
sg4
V1:53 PM - 30 Jun 2015
p527
sa(dp528
g2
V"@woofeous @realDonaldTrump Everyone loves Donald because he'll tell it like it is without any political "sugar-coating" & double-speak."
p529
sg4
V9:35 AM - 30 Jun 2015
p530
sa(dp531
g2
V"@yankeeworshiper  thank you to Donald Trump for standing up for what you believe in.leave the B.S.and lies for Hillary and Barack."
p532
sg4
V9:32 AM - 30 Jun 2015
p533
sa(dp534
g2
V"@MalachiNorris: Just over a year before everyone hears DonaldTrump say "I Donald Trump do solemnly swear that I will protect America""
p535
sg4
V4:50 AM - 29 Jun 2015
p536
sa(dp537
g2
VSaudi Arabia should be paying the United States many billions of dollars for our defense of them. Without us, gone!  @AlWaleedbinT
p538
sg4
V4:40 AM - 29 Jun 2015
p539
sa(dp540
g2
VGet ready for @Oreillyfactor tonight at 8- always interesting!
p541
sg4
V3:52 PM - 30 Jun 2015
p542
sa(dp543
g2
VVia @THESHARKTANK1: "Donald Trump's Controversial Mexican Comments Are Accurate"
p544
sg4
V3:21 PM - 30 Jun 2015
p545
sa(dp546
g2
VMy just filed lawsuit against Univision. Always fight back when right. #MakeAmericaGreatAgain https://instagram.com/p/4kZ-DTmhYp/ 
p547
sg4
V2:44 PM - 30 Jun 2015
p548
sa(dp549
g2
VWatch me on the @oreillyfactor tonight at 8PM.
p550
sg4
V1:51 PM - 30 Jun 2015
p551
sa(dp552
g2
V@tedcruz, now I know you're smart! See you soon. http://www.nytimes.com/politics/first-draft/2015/06/30/ted-cruz-comes-to-the-defense-of-donald-trump/?_r=0 \u2026\u000a#TCOT #MAKEAMERICAGREATAGAIN!
p553
sg4
V1:17 PM - 30 Jun 2015
p554
sa(dp555
g2
V"@Figlo7 @realDonaldTrump Apologize to the press for not being a politician - because you haven't learned to LIE yet. Go Donald!"
p556
sg4
V9:30 AM - 30 Jun 2015
p557
sa(dp558
g2
VThank you Ted.
p559
sg4
V6:51 AM - 30 Jun 2015
p560
sa(dp561
g2
V"@WILDMANBS It says a lot about @NBC when they fire @realDonaldTrump but keep Brian Williams and @TheRevAl on the payroll. #tcot"
p562
sg4
V6:45 AM - 30 Jun 2015
p563
sa(dp564
g2
VI love the Mexican people, but Mexico is not our friend. They're killing us at the border and they're killing us on jobs and trade. FIGHT!
p565
sg4
V5:57 AM - 30 Jun 2015
p566
sa(dp567
g2
VWe MUST have strong borders and stop illegal immigration. Without that we do not have a country. Also, Mexico is killing U.S. on trade. WIN!
p568
sg4
V5:35 AM - 30 Jun 2015
p569
sa(dp570
g2
V"@KristenCWard: Great statement and it's finally nice to have someone who stands by what they say!  #GotMyVote https://twitter.com/realdonaldtrump/status/615575119046512640 \u2026"
p571
sg4
V6:42 PM - 29 Jun 2015
p572
sa(dp573
g2
V"@ChipB: Like him or not @realDonaldTrump says EXACTLY what he thinks and doesn't beat around the bush. And that's admirable. #Election2016"
p574
sg4
V6:41 PM - 29 Jun 2015
p575
sa(dp576
g2
V"@slucch24:  @AnnCoulter don't worry... we clearly don't have an illegal alien criminal problem. #AdiosAmerica "
p577
sg4
V5:11 PM - 29 Jun 2015
p578
sa(dp579
g2
VGet ready for @Oreillyfactor tonight at 8- always interesting!
p580
sg4
V3:52 PM - 30 Jun 2015
p581
sa(dp582
g2
VVia @THESHARKTANK1: "Donald Trump's Controversial Mexican Comments Are Accurate"
p583
sg4
V3:21 PM - 30 Jun 2015
p584
sa(dp585
g2
VMy just filed lawsuit against Univision. Always fight back when right. #MakeAmericaGreatAgain https://instagram.com/p/4kZ-DTmhYp/ 
p586
sg4
V2:44 PM - 30 Jun 2015
p587
sa(dp588
g2
V"@webster07 @realDonaldTrump wish there were more people in the public eye with this attitude. It's only way 2 defeat political correctness"
p589
sg4
V1:53 PM - 30 Jun 2015
p590
sa(dp591
g2
VWatch me on the @oreillyfactor tonight at 8PM.
p592
sg4
V1:51 PM - 30 Jun 2015
p593
sa(dp594
g2
V@tedcruz, now I know you're smart! See you soon. http://www.nytimes.com/politics/first-draft/2015/06/30/ted-cruz-comes-to-the-defense-of-donald-trump/?_r=0 \u2026\u000a#TCOT #MAKEAMERICAGREATAGAIN!
p595
sg4
V1:17 PM - 30 Jun 2015
p596
sa(dp597
g2
V"@woofeous @realDonaldTrump Everyone loves Donald because he'll tell it like it is without any political "sugar-coating" & double-speak."
p598
sg4
V9:35 AM - 30 Jun 2015
p599
sa(dp600
g2
V"@yankeeworshiper  thank you to Donald Trump for standing up for what you believe in.leave the B.S.and lies for Hillary and Barack."
p601
sg4
V9:32 AM - 30 Jun 2015
p602
sa(dp603
g2
V"@melsthemom @realDonaldTrump NBC=censorship. I'm done with them"
p604
sg4
V9:31 AM - 30 Jun 2015
p605
sa(dp606
g2
V"@Figlo7 @realDonaldTrump Apologize to the press for not being a politician - because you haven't learned to LIE yet. Go Donald!"
p607
sg4
V9:30 AM - 30 Jun 2015
p608
sa(dp609
g2
VThank you Ted.
p610
sg4
V6:51 AM - 30 Jun 2015
p611
sa(dp612
g2
V"@WILDMANBS It says a lot about @NBC when they fire @realDonaldTrump but keep Brian Williams and @TheRevAl on the payroll. #tcot"
p613
sg4
V6:45 AM - 30 Jun 2015
p614
sa(dp615
g2
V"@kingjersey1 @realDonaldTrump #MakeAmericaGreatAgain they can't stand that you are speaking for the American people"
p616
sg4
V6:44 AM - 30 Jun 2015
p617
sa(dp618
g2
VI love the Mexican people, but Mexico is not our friend. They're killing us at the border and they're killing us on jobs and trade. FIGHT!
p619
sg4
V5:57 AM - 30 Jun 2015
p620
sa(dp621
g2
VWe MUST have strong borders and stop illegal immigration. Without that we do not have a country. Also, Mexico is killing U.S. on trade. WIN!
p622
sg4
V5:35 AM - 30 Jun 2015
p623
sa(dp624
g2
V"@Einsteinrevisit: @megynkelly @GeraldoRivera @realDonaldTrump LOVE the TRUMP!"
p625
sg4
V6:44 PM - 29 Jun 2015
p626
sa(dp627
g2
V"@KristenCWard: Great statement and it's finally nice to have someone who stands by what they say!  #GotMyVote https://twitter.com/realdonaldtrump/status/615575119046512640 \u2026"
p628
sg4
V6:42 PM - 29 Jun 2015
p629
sa(dp630
g2
V"@ChipB: Like him or not @realDonaldTrump says EXACTLY what he thinks and doesn't beat around the bush. And that's admirable. #Election2016"
p631
sg4
V6:41 PM - 29 Jun 2015
p632
sa(dp633
g2
V"@blindtothetruth Trump is polling well because he speaks his mind. Not like some of the career politicians he's running against. Cowards."
p634
sg4
V12:20 PM - 31 Jul 2015
p635
sa(dp636
g2
VThank you @Morning_Joe for throwing the pathetic reporter from the failing and money losing Daily Beast off the air. Really cool!
p637
sg4
V6:54 AM - 29 Jul 2015
p638
sa(dp639
g2
VA nation WITHOUT BORDERS is not a nation at all. We must have a wall. The rule of law matters. Jeb just doesn\u2019t get it.
p640
sg4
V2:20 PM - 28 Jul 2015
p641
sa(dp642
g2
VObama\u2019s nuclear deal with the Iranians will lead to a nuclear arms race in the Middle East. It has to be stopped.
p643
sg4
V12:00 PM - 28 Jul 2015
p644
sa(dp645
g2
VI look forward to the debate on Thursday night & it is certainly my intention to be very nice & highly respectful of the other candidates.
p646
sg4
V12:46 PM - 30 Jul 2015
p647
sa(dp648
g2
V"@sjh2222 Difference Between Politicians and @realDonaldTrump = \u000aPols Are Bought & Paid For. Trump Can't be Bought, Bullied or Bribed!"
p649
sg4
V9:11 AM - 31 Jul 2015
p650
sa(dp651
g2
VIf you think you can do a thing or think you can't do a thing, you're right.\u000a -- Henry Ford
p652
sg4
V6:54 AM - 31 Jul 2015
p653
sa(dp654
g2
VWow, some new and even greater polls--thank you!
p655
sg4
V6:40 AM - 31 Jul 2015
p656
sa(dp657
g2
VThe polls have been consistently great. The silent majority is speaking. Politicians are failing. #MakeAmericaGreatAgain!
p658
sg4
V1:27 PM - 30 Jul 2015
p659
sa(dp660
g2
VGetting ready to leave for my GREAT resort, Turnberry, in Scotland. Hosting The Women's British Open (biggest tournament). Will be back Sat.
p661
sg4
V5:08 PM - 29 Jul 2015
p662
sa(dp663
g2
VI really like the Koch Brothers (members of my P.B. Club), but I don't want their money or anything else from them. Cannot influence Trump!
p664
sg4
V5:00 PM - 29 Jul 2015
p665
sa(dp666
g2
VHow can a dummy dope like Harry Hurt, who wrote a failed book about me but doesn\u2019t know me or anything about me, be on TV discussing Trump?
p667
sg4
V2:44 PM - 29 Jul 2015
p668
sa(dp669
g2
VTrump Will Make America GREAT!!!!\u000a  #ChangeTheWorldIn5Words
p670
sg4
V2:15 PM - 29 Jul 2015
p671
sa(dp672
g2
V... while Tom Brady is guilty because he REPLACED his LEGAL cellphone?
p673
sg4
V1:54 PM - 29 Jul 2015
p674
sa(dp675
g2
VThis is an outrage! Bias-Free Language Guide claims the word 'American' is 'problematic' -- WHAT?!
p676
sg4
V11:04 AM - 29 Jul 2015
p677
sa(dp678
g2
VI truly LOVE all of the millions of people who are sticking with me despite so many media lies. There is a great SILENT MAJORITY looming!
p679
sg4
V6:58 AM - 29 Jul 2015
p680
sa(dp681
g2
VSo many people who know nothing about me are commenting all over T.V. and the media as though they have great D.J.T. insight. Know NOTHING!
p682
sg4
V5:56 AM - 29 Jul 2015
p683
sa(dp684
g2
V"@ColinSWood  @realDonaldTrump is worth more than ALL of the other Presidential candidates combined and plenty more."
p685
sg4
V1:37 PM - 31 Jul 2015
p686
sa(dp687
g2
V"@blindtothetruth Trump is polling well because he speaks his mind. Not like some of the career politicians he's running against. Cowards."
p688
sg4
V12:20 PM - 31 Jul 2015
p689
sa(dp690
g2
V"@sjh2222 Difference Between Politicians and @realDonaldTrump = \u000aPols Are Bought & Paid For. Trump Can't be Bought, Bullied or Bribed!"
p691
sg4
V9:11 AM - 31 Jul 2015
p692
sa(dp693
g2
VIf you think you can do a thing or think you can't do a thing, you're right.\u000a -- Henry Ford
p694
sg4
V6:54 AM - 31 Jul 2015
p695
sa(dp696
g2
VWow, some new and even greater polls--thank you!
p697
sg4
V6:40 AM - 31 Jul 2015
p698
sa(dp699
g2
VWill be leaving Trump Turnberry tomorrow--place & Women's British Open are great. Will be back hitting hard tomorrow. @Turnberrybuzz
p700
sg4
V6:39 AM - 31 Jul 2015
p701
sa(dp702
g2
VShould not raise taxes in Wisconsin, but massive budget deficit. Education, roads, etc suffering. @DanHenninger lies. @WSJ
p703
sg4
V6:36 AM - 31 Jul 2015
p704
sa(dp705
g2
VThank you for your service!
p706
sg4
V5:00 PM - 30 Jul 2015
p707
sa(dp708
g2
VThank you.
p709
sg4
V4:58 PM - 30 Jul 2015
p710
sa(dp711
g2
VThe polls have been consistently great. The silent majority is speaking. Politicians are failing. #MakeAmericaGreatAgain!
p712
sg4
V1:27 PM - 30 Jul 2015
p713
sa(dp714
g2
VI look forward to the debate on Thursday night & it is certainly my intention to be very nice & highly respectful of the other candidates.
p715
sg4
V12:46 PM - 30 Jul 2015
p716
sa(dp717
g2
VJust at a news conference from Trump Turnberry in Scotland. Everybody was there & will be all over television tonite. Back on trail Saturday
p718
sg4
V12:39 PM - 30 Jul 2015
p719
sa(dp720
g2
VCarl Cameron @FoxNews is the only reporter I know who consistently fumbles & misrepresents poll results. He has been so wrong & he hates it!
p721
sg4
V12:36 PM - 30 Jul 2015
p722
sa(dp723
g2
V"@bdean1468 The alpha male in the 2016 race: @realDonaldTrump \u000aHe has real success stories, tons of money, confident, & he's his own backer"
p724
sg4
V12:12 PM - 30 Jul 2015
p725
sa(dp726
g2
V"@lasannewton @realDonaldTrump The only candidate who will not owe favors to campaign contributors"
p727
sg4
V12:10 PM - 30 Jul 2015
p728
sa(dp729
g2
V"@Jennifer75AR @AmyMek  He's not for sale like the politicians are! That's why he gives us truth! Trump for Prez! #Trump2016"
p730
sg4
V9:08 AM - 30 Jul 2015
p731
sa(dp732
g2
V"@LinFlies  @califortrump @realDonaldTrump  we love #TrumpForPresident & thankful"
p733
sg4
V6:10 AM - 30 Jul 2015
p734
sa(dp735
g2
V"@linablue: @realDonaldTrump I love the fact you can't be "bought"..."
p736
sg4
V7:59 PM - 29 Jul 2015
p737
sa(dp738
g2
VLeading in the Bloomberg Iowa poll. Also, my favorability numbers went up at a record, almost unheard of, clip. Thank you Iowa!
p739
sg4
V3:33 AM - 31 Aug 2015
p740
sa(dp741
g2
VLoved being with my many friends in Tennessee. The crowd and enthusiasm was fantastic. I won the straw poll big!
p742
sg4
V3:27 AM - 31 Aug 2015
p743
sa(dp744
g2
VGreat rally last night in Massachusetts. 2000 people at a house - must be a record! Unbelievable spirit to MAKE AMERICA GREAT AGAIN.
p745
sg4
V5:40 AM - 29 Aug 2015
p746
sa(dp747
g2
V"@TDarbyMitchell: I love you Donald Trump! I've never liked politics before u came on the scene but I finally feel like there's hope for USA
p748
sg4
V2:58 PM - 28 Aug 2015
p749
sa(dp750
g2
VJust got back from Iowa. Fantastic evening with truly fabulous people. Will be back again soon. Thanks!
p751
sg4
V9:34 PM - 25 Aug 2015
p752
sa(dp753
g2
VFor those that don\u2019t think a wall (fence) works, why don\u2019t they suggest taking down the fence around the White House? Foolish people!
p754
sg4
V8:05 AM - 31 Aug 2015
p755
sa(dp756
g2
VHuma Abedin, the top aide to Hillary Clinton and the wife of perv sleazebag Anthony Wiener, was a major security risk as a collector of info
p757
sg4
V4:52 AM - 31 Aug 2015
p758
sa(dp759
g2
V"@nodramahea: @realDonaldTrump Gaining more supporters every day. People want change. Trump2016"
p760
sg4
V4:04 AM - 31 Aug 2015
p761
sa(dp762
g2
V"@Ricky_Vaughn99: Herschel Walker: Donald Trump is 'my frontrunner' for president http://usat.ly/1F6BkYY  via @USATODAY"
p763
sg4
V8:34 PM - 29 Aug 2015
p764
sa(dp765
g2
V"@teapartynews: Trump Wins Tea Party Group's 'Nashville Straw Poll' - Newsmax http://dlvr.it/C0nt7Y "  GREAT, THANK YOU!
p766
sg4
V8:30 PM - 29 Aug 2015
p767
sa(dp768
g2
VVia @BreitbartNews "TRUMP WINS NASHVILLE GRASSROOTS STRAW POLL WITH 52 PERCENT"-
p769
sg4
V5:19 PM - 29 Aug 2015
p770
sa(dp771
g2
VWow, Jeb Bush just lost three of his top fundraisers - they quit!
p772
sg4
V5:45 AM - 29 Aug 2015
p773
sa(dp774
g2
VLeaving now for Tennessee. Big crowd!
p775
sg4
V5:43 AM - 29 Aug 2015
p776
sa(dp777
g2
V"@joehos18: BOOM - Univision Reluctantly Reports Donald Trump Leading With Latino Republicans.... http://wp.me/p1kzlW-rc0  via @thelastrefuge2
p778
sg4
V5:11 AM - 29 Aug 2015
p779
sa(dp780
g2
V"@NancyLLeonard: Love 'em or hate 'em @realDonaldTrump is changing the playing field, finally. Our country needed this wake-up call.
p781
sg4
V2:50 PM - 28 Aug 2015
p782
sa(dp783
g2
VA phony story that I am trying to buy a soccer team in Argentina is untrue. Never even heard of the team\u2014no interest!
p784
sg4
V10:39 AM - 28 Aug 2015
p785
sa(dp786
g2
VVia CNN: Trump now leads in odds to win GOP nomination
p787
sg4
V7:32 AM - 28 Aug 2015
p788
sa(dp789
g2
V"@jp_sitles: @realDonaldTrump HillaryClinton: she compared republicans to terrorist but will not call terrorists , terrorists. #OhMe"
p790
sg4
V6:52 PM - 27 Aug 2015
p791
sa(dp792
g2
VVery proud of Trump Int'l Golf Links in Aberdeen, Scotland. Just got the five star award from @VisitScotNews
p793
sg4
V12:54 PM - 31 Aug 2015
p794
sa(dp795
g2
VSee, I told you so http://commonsensewonder.blogspot.com/2015/08/its-no-camelot-caroline-kennedys.html \u2026
p796
sg4
V11:18 AM - 31 Aug 2015
p797
sa(dp798
g2
VThis is no "act of love" as Jeb Bush said\u2026 https://instagram.com/p/7DdvbEmhWG/ 
p799
sg4
V9:23 AM - 31 Aug 2015
p800
sa(dp801
g2
VFor those that don\u2019t think a wall (fence) works, why don\u2019t they suggest taking down the fence around the White House? Foolish people!
p802
sg4
V8:05 AM - 31 Aug 2015
p803
sa(dp804
g2
VHuma Abedin, the top aide to Hillary Clinton and the wife of perv sleazebag Anthony Wiener, was a major security risk as a collector of info
p805
sg4
V4:52 AM - 31 Aug 2015
p806
sa(dp807
g2
V"@nodramahea: @realDonaldTrump Gaining more supporters every day. People want change. Trump2016"
p808
sg4
V4:04 AM - 31 Aug 2015
p809
sa(dp810
g2
VLeading in the Bloomberg Iowa poll. Also, my favorability numbers went up at a record, almost unheard of, clip. Thank you Iowa!
p811
sg4
V3:33 AM - 31 Aug 2015
p812
sa(dp813
g2
VLoved being with my many friends in Tennessee. The crowd and enthusiasm was fantastic. I won the straw poll big!
p814
sg4
V3:27 AM - 31 Aug 2015
p815
sa(dp816
g2
V"@Ricky_Vaughn99: Herschel Walker: Donald Trump is 'my frontrunner' for president http://usat.ly/1F6BkYY  via @USATODAY"
p817
sg4
V8:34 PM - 29 Aug 2015
p818
sa(dp819
g2
V"@teapartynews: Trump Wins Tea Party Group's 'Nashville Straw Poll' - Newsmax http://dlvr.it/C0nt7Y "  GREAT, THANK YOU!
p820
sg4
V8:30 PM - 29 Aug 2015
p821
sa(dp822
g2
VVia @BreitbartNews "TRUMP WINS NASHVILLE GRASSROOTS STRAW POLL WITH 52 PERCENT"-
p823
sg4
V5:19 PM - 29 Aug 2015
p824
sa(dp825
g2
VWow, Jeb Bush just lost three of his top fundraisers - they quit!
p826
sg4
V5:45 AM - 29 Aug 2015
p827
sa(dp828
g2
VLeaving now for Tennessee. Big crowd!
p829
sg4
V5:43 AM - 29 Aug 2015
p830
sa(dp831
g2
VGreat rally last night in Massachusetts. 2000 people at a house - must be a record! Unbelievable spirit to MAKE AMERICA GREAT AGAIN.
p832
sg4
V5:40 AM - 29 Aug 2015
p833
sa(dp834
g2
V"@joehos18: BOOM - Univision Reluctantly Reports Donald Trump Leading With Latino Republicans.... http://wp.me/p1kzlW-rc0  via @thelastrefuge2
p835
sg4
V5:11 AM - 29 Aug 2015
p836
sa(dp837
g2
VWill be interviewed by @SarahPalinUSA tonight at 10:00 on OAN Network. Enjoy!
p838
sg4
V3:59 PM - 28 Aug 2015
p839
sa(dp840
g2
V"@TDarbyMitchell: I love you Donald Trump! I've never liked politics before u came on the scene but I finally feel like there's hope for USA
p841
sg4
V2:58 PM - 28 Aug 2015
p842
sa(dp843
g2
V"@NancyLLeonard: Love 'em or hate 'em @realDonaldTrump is changing the playing field, finally. Our country needed this wake-up call.
p844
sg4
V2:50 PM - 28 Aug 2015
p845
sa(dp846
g2
VI hope when Rand Paul gets out of the race\u2014he is at 1%--his supporters come over to me. I will do a much better job for them.
p847
sg4
V8:04 AM - 29 Sep 2015
p848
sa(dp849
g2
V"@yang_karl: All Scott Pelley did by being disrespectful was make it easier to make up my mind who to vote for and that will be Trump."
p850
sg4
V7:37 PM - 27 Sep 2015
p851
sa(dp852
g2
V"@SkyeShepard: Trump went way up in my 'poll' when he said he'd take money from what US is giving 2 other countries 2 save social security"
p853
sg4
V7:31 PM - 27 Sep 2015
p854
sa(dp855
g2
VRubio is totally owned by the lobbyists and special interests. A lightweight senator with the worst voting record in Senate. Lazy!
p856
sg4
V5:20 AM - 30 Sep 2015
p857
sa(dp858
g2
V"Trump\u2019s Tax Plan: A Proposal Reagan Would Approve?" by Jeff Bell
p859
sg4
V2:33 PM - 30 Sep 2015
p860
sa(dp861
g2
VInteresting, polls on who won the GOP debate.
p862
sg4
V1:14 PM - 30 Sep 2015
p863
sa(dp864
g2
VGreat news! Just out--the highly respected USA Today/Suffolk University Poll. Enjoy!
p865
sg4
V9:43 AM - 30 Sep 2015
p866
sa(dp867
g2
VAnyone reading this profile of Marco Rubio would never vote for him. Never made ten cents & is totally controlled!
p868
sg4
V7:59 AM - 30 Sep 2015
p869
sa(dp870
g2
VHighly respected economist @Larry_Kudlow is a big fan of my tax plan\u2014thank you Larry. http://www.newsmax.com/Newsfront/larry-kudlow-like-donald-trump-tax/2015/09/29/id/693948/ \u2026
p871
sg4
V7:52 AM - 30 Sep 2015
p872
sa(dp873
g2
VJust read that "Trump" has the largest (and I add most enthusiastic) crowds. Tonight I will be in New Hampshire - the place will be packed!
p874
sg4
V4:51 AM - 30 Sep 2015
p875
sa(dp876
g2
VI watched lightweight Senator  Marco Rubio, who is all talk and no action, defend his WEAK position on illegal immigration. Pathetic!
p877
sg4
V4:24 AM - 30 Sep 2015
p878
sa(dp879
g2
VCarl Icahn said this about me:  "I think at this moment in time, he\u2019s the only candidate that speaks out about the country\u2019s problems."
p880
sg4
V9:49 AM - 29 Sep 2015
p881
sa(dp882
g2
VDefinitely watch @Carl_C_Icahn \u2018s \u2018Danger Ahead\u2019. Very insightful, particularly on how corp inversions hurt America:
p883
sg4
V8:20 AM - 29 Sep 2015
p884
sa(dp885
g2
V"@polina6: @realDonaldTrump MAN WITH A PLAN-THE BEST TAX PLAN! GO TRUMP 2016!"
p886
sg4
V8:51 PM - 28 Sep 2015
p887
sa(dp888
g2
VDo you believe this - Iran wants to trade our 3 prisoners (not 4) for 19 prisoners held by the U.S. Should have been let go with last deal!
p889
sg4
V4:53 PM - 28 Sep 2015
p890
sa(dp891
g2
VWow, the ratings for @60Minutes last night were their biggest in a year--- very nice!
p892
sg4
V3:00 PM - 28 Sep 2015
p893
sa(dp894
g2
VConservative? Jeb Bush doubled Florida State debt!http://www.usgovernmentspending.com/spending_chart_1999_2007FLb_16s2li111mcn_H0s \u2026
p895
sg4
V12:21 PM - 28 Sep 2015
p896
sa(dp897
g2
V"Trump\u2019s Tax Plan: A Proposal Reagan Would Approve?" by Jeff Bell
p898
sg4
V2:33 PM - 30 Sep 2015
p899
sa(dp900
g2
VI will be interviewed by @donlemon tonight on @CNN at 10PM.
p901
sg4
V1:53 PM - 30 Sep 2015
p902
sa(dp903
g2
VInteresting, polls on who won the GOP debate.
p904
sg4
V1:14 PM - 30 Sep 2015
p905
sa(dp906
g2
VWith @williebosshog, a great guy, at our 20,000 people event in Oklahoma last week. https://instagram.com/p/8QzMm7mhaA/ 
p907
sg4
V12:40 PM - 30 Sep 2015
p908
sa(dp909
g2
VWow, so nice! Thank you Wayne Allyn Root.
p910
sg4
V10:22 AM - 30 Sep 2015
p911
sa(dp912
g2
VGreat news! Just out--the highly respected USA Today/Suffolk University Poll. Enjoy!
p913
sg4
V9:43 AM - 30 Sep 2015
p914
sa(dp915
g2
VAnyone reading this profile of Marco Rubio would never vote for him. Never made ten cents & is totally controlled!
p916
sg4
V7:59 AM - 30 Sep 2015
p917
sa(dp918
g2
VHighly respected economist @Larry_Kudlow is a big fan of my tax plan\u2014thank you Larry. http://www.newsmax.com/Newsfront/larry-kudlow-like-donald-trump-tax/2015/09/29/id/693948/ \u2026
p919
sg4
V7:52 AM - 30 Sep 2015
p920
sa(dp921
g2
VRubio is totally owned by the lobbyists and special interests. A lightweight senator with the worst voting record in Senate. Lazy!
p922
sg4
V5:20 AM - 30 Sep 2015
p923
sa(dp924
g2
V"@kissmeandrocco: @realDonaldTrump who ever thinks Donald trump is a bad person u just don't want a good country" Thank you.
p925
sg4
V5:13 AM - 30 Sep 2015
p926
sa(dp927
g2
VJust read that "Trump" has the largest (and I add most enthusiastic) crowds. Tonight I will be in New Hampshire - the place will be packed!
p928
sg4
V4:51 AM - 30 Sep 2015
p929
sa(dp930
g2
VI watched lightweight Senator  Marco Rubio, who is all talk and no action, defend his WEAK position on illegal immigration. Pathetic!
p931
sg4
V4:24 AM - 30 Sep 2015
p932
sa(dp933
g2
VGreat!
p934
sg4
V1:31 PM - 29 Sep 2015
p935
sa(dp936
g2
VCarl Icahn said this about me:  "I think at this moment in time, he\u2019s the only candidate that speaks out about the country\u2019s problems."
p937
sg4
V9:49 AM - 29 Sep 2015
p938
sa(dp939
g2
VDefinitely watch @Carl_C_Icahn \u2018s \u2018Danger Ahead\u2019. Very insightful, particularly on how corp inversions hurt America:
p940
sg4
V8:20 AM - 29 Sep 2015
p941
sa(dp942
g2
VI hope when Rand Paul gets out of the race\u2014he is at 1%--his supporters come over to me. I will do a much better job for them.
p943
sg4
V8:04 AM - 29 Sep 2015
p944
sa(dp945
g2
V"@polina6: @realDonaldTrump MAN WITH A PLAN-THE BEST TAX PLAN! GO TRUMP 2016!"
p946
sg4
V8:51 PM - 28 Sep 2015
p947
sa(dp948
g2
V.@thehill  John Oliver had his people call to ask me to be on his very boring and low rated show. I said "NO THANKS" Waste of time & energy!
p949
sg4
V4:21 PM - 31 Oct 2015
p950
sa(dp951
g2
VFew people know that  @FortuneMagazine is still in business. Tell your writer  Alisa Soloman that I left The Apprentice to run for president
p952
sg4
V4:13 PM - 31 Oct 2015
p953
sa(dp954
g2
VI am leaving for Norfolk, Virginia - the great battleship U.S.S. Wisconsin - for a big rally and really big crowd. See you soon!
p955
sg4
V5:28 AM - 31 Oct 2015
p956
sa(dp957
g2
VThe new NBC POLL has me in first place but said I was third in the debate - I demand a recount (just kidding!). EVERY other poll had me #1.
p958
sg4
V5:18 AM - 31 Oct 2015
p959
sa(dp960
g2
VWhen candidate John Kasich, on the @oreillyfactor, talked about dismantling Medicare and Medicaid, he was referring to Ben Carson.
p961
sg4
V9:20 PM - 30 Oct 2015
p962
sa(dp963
g2
V"@SueSabo: MEDIA WANTS A PUPPET.WE WANT DONALD TRUMP TO MAKE AMERICA GREAT AGAIN, LAST CHANCE TO MAKE AMERICA GREAT
p964
sg4
V4:40 PM - 31 Oct 2015
p965
sa(dp966
g2
V"@TheMsDlr: Donald Trump Releases Plan to Reform Veterans Affairs - ABC News - http://abcn.ws/1Q1VefW  via @ABC"
p967
sg4
V4:39 PM - 31 Oct 2015
p968
sa(dp969
g2
V"@CBSNews: WATCH: Donald Trump holds rally at USS Wisconsin in Virginia http://cbsn.ws/1jZxFsd  "  A great day.
p970
sg4
V4:36 PM - 31 Oct 2015
p971
sa(dp972
g2
V"@WayneDupreeShow: Trump:Our educational sys is ranked #28 in the world-Get rid of #CommonCore Watch LIVE and CHAT:
p973
sg4
V4:35 PM - 31 Oct 2015
p974
sa(dp975
g2
V"@DanielGenseric:  Another STRONG pro-American position with Dept of Veterans Affairs reform policy. #Trump2016 https://www.donaldjtrump.com/positions/veterans-administration-reforms \u2026"
p976
sg4
V3:56 PM - 31 Oct 2015
p977
sa(dp978
g2
V"@twillnurse: @realDonaldTrump saw this and had to share! He wants to be you! Love it!!!! U r his HERO! " So cute!
p979
sg4
V3:53 PM - 31 Oct 2015
p980
sa(dp981
g2
VNo complaints but how many people would be watching these really dumb but record setting debates if I wasn't in them? Interesting question!
p982
sg4
V3:31 PM - 31 Oct 2015
p983
sa(dp984
g2
VSupport Coach Kennedy and his right, together with his young players, to pray on the football field. Liberty Institute just suspended him!
p985
sg4
V12:17 PM - 31 Oct 2015
p986
sa(dp987
g2
VJust left Virginia where I unveiled my healthcare and other plans for our great Veterans! They will be very happy! https://www.donaldjtrump.com/positions/veterans-administration-reforms \u2026
p988
sg4
V12:11 PM - 31 Oct 2015
p989
sa(dp990
g2
V.@ColinCowherd said such nice things about me during the debate that I thought I'd do his show, @TheHerd, on Monday (2:30pm EST).
p991
sg4
V12:09 PM - 31 Oct 2015
p992
sa(dp993
g2
V"@Maxinerunner: @realDonaldTrump surges in Post-debate Poll! Trump puts US 1st and foremost  @BraveLad @TIMENOUT https://twitter.com/joenbc/status/660448072594554880 \u2026"
p994
sg4
V7:25 AM - 31 Oct 2015
p995
sa(dp996
g2
VThe @WSJ Wall Street Journal loves to write badly about me. They better be careful or I will unleash big time on them. Look forward to it!
p997
sg4
V7:18 AM - 31 Oct 2015
p998
sa(dp999
g2
VLifting off right now for U.S.S. Wisconsin in Norfolk. See ya'
p1000
sg4
V7:10 AM - 31 Oct 2015
p1001
sa(dp1002
g2
V"@SueSabo: MEDIA WANTS A PUPPET.WE WANT DONALD TRUMP TO MAKE AMERICA GREAT AGAIN, LAST CHANCE TO MAKE AMERICA GREAT
p1003
sg4
V4:40 PM - 31 Oct 2015
p1004
sa(dp1005
g2
V"@TheMsDlr: Donald Trump Releases Plan to Reform Veterans Affairs - ABC News - http://abcn.ws/1Q1VefW  via @ABC"
p1006
sg4
V4:39 PM - 31 Oct 2015
p1007
sa(dp1008
g2
V"@CBSNews: WATCH: Donald Trump holds rally at USS Wisconsin in Virginia http://cbsn.ws/1jZxFsd  "  A great day.
p1009
sg4
V4:36 PM - 31 Oct 2015
p1010
sa(dp1011
g2
V"@WayneDupreeShow: Trump:Our educational sys is ranked #28 in the world-Get rid of #CommonCore Watch LIVE and CHAT:
p1012
sg4
V4:35 PM - 31 Oct 2015
p1013
sa(dp1014
g2
V"@thehill: WATCH LIVE: Trump talks about treatment of veterans in Norfolk, Va. http://hill.cm/tIZ8oJH  "
p1015
sg4
V4:34 PM - 31 Oct 2015
p1016
sa(dp1017
g2
V"@costareports: The Post's latest on Trump: http://wpo.st/Vi9k0  From Trump's rally today in Virginia: https://twitter.com/KatyTurNBC/status/660510607649742848 \u2026"
p1018
sg4
V4:33 PM - 31 Oct 2015
p1019
sa(dp1020
g2
V.@thehill  John Oliver had his people call to ask me to be on his very boring and low rated show. I said "NO THANKS" Waste of time & energy!
p1021
sg4
V4:21 PM - 31 Oct 2015
p1022
sa(dp1023
g2
VFew people know that  @FortuneMagazine is still in business. Tell your writer  Alisa Soloman that I left The Apprentice to run for president
p1024
sg4
V4:13 PM - 31 Oct 2015
p1025
sa(dp1026
g2
V"@DanielGenseric:  Another STRONG pro-American position with Dept of Veterans Affairs reform policy. #Trump2016 https://www.donaldjtrump.com/positions/veterans-administration-reforms \u2026"
p1027
sg4
V3:56 PM - 31 Oct 2015
p1028
sa(dp1029
g2
V"@BorderWall: Floridian here I quit watching debates years ago & most TV except GATOR football until you decided to run for President"
p1030
sg4
V3:54 PM - 31 Oct 2015
p1031
sa(dp1032
g2
V"@sean_in_NH: @realDonaldTrump @realOllieTaylor so true. In all previous debates, no one watched and they were  cancelled"
p1033
sg4
V3:53 PM - 31 Oct 2015
p1034
sa(dp1035
g2
V"@SallyAvicii2014:  @realOllieTaylor Agree This is The Only Time #Americans have been More involved in President Elections since Kennedy!!!"
p1036
sg4
V3:52 PM - 31 Oct 2015
p1037
sa(dp1038
g2
V"@JodiL792: @realDonaldTrump I wouldn't be watching at all!!! Honestly!"
p1039
sg4
V3:50 PM - 31 Oct 2015
p1040
sa(dp1041
g2
V"@realOllieTaylor: @realDonaldTrump no one would have watched the debates if Trump had not  been in them"
p1042
sg4
V3:37 PM - 31 Oct 2015
p1043
sa(dp1044
g2
V"@Rketeltas: @realDonaldTrump has won all three debates and all that matters is that Trump supporters know that & will vote Trump!" THANKS!
p1045
sg4
V3:36 PM - 31 Oct 2015
p1046
sa(dp1047
g2
VI will be going to Sarasota, Florida, today for a big rally with amazing people! I have one goal on mind: MAKE AMERICA GREAT AGAIN!
p1048
sg4
V3:12 AM - 28 Nov 2015
p1049
sa(dp1050
g2
VWill be meeting on Monday at Trump Tower with a large group of African American Pastors. Many I know-wonderful people! Not a press event.
p1051
sg4
V1:37 PM - 29 Nov 2015
p1052
sa(dp1053
g2
VJust watched Cookie Roberts on @ABC. Her predictions have been so wrong for so long that she has lost all credibility. Just another sad case
p1054
sg4
V1:31 PM - 29 Nov 2015
p1055
sa(dp1056
g2
V.@CNN has to do better reporting if it wants to keep up with the crowd.So totally one-sided and biased against me that it is becoming boring
p1057
sg4
V8:03 PM - 28 Nov 2015
p1058
sa(dp1059
g2
VThe Sarasota, Florida, rally today was amazing. 12,000 people chanting their love for our country. It's going to happen, this is a MOVEMENT!
p1060
sg4
V4:22 PM - 28 Nov 2015
p1061
sa(dp1062
g2
VWe need a great leader- now! https://www.instagram.com/p/-uAgXOGhV1/ 
p1063
sg4
V10:26 AM - 30 Nov 2015
p1064
sa(dp1065
g2
VWe better be vigilant, careful, and strong.
p1066
sg4
V7:40 AM - 30 Nov 2015
p1067
sa(dp1068
g2
VThe Republican establishment, out of self preservation, is concerned w/ my high poll #'s. More concerned are Dems\u2014I beat Hillary heads up!
p1069
sg4
V7:23 AM - 30 Nov 2015
p1070
sa(dp1071
g2
VHow is Chris Christie running the state of NJ, which is deeply troubled, when he is spending all of his time in NH? New Jerseyans not happy!
p1072
sg4
V6:09 AM - 30 Nov 2015
p1073
sa(dp1074
g2
VWow, the MSM is really going after me. 12,000 in Sarasota, a love fest, hardly a mention. Only one negativity - they only want negatives!
p1075
sg4
V6:08 AM - 30 Nov 2015
p1076
sa(dp1077
g2
VWhen will @CNN get some real political talent rather than political commentators like Errol Louis, who doesn't have a clue! Others bad also.
p1078
sg4
V4:44 AM - 30 Nov 2015
p1079
sa(dp1080
g2
V"@BeckyOmz: @JuvenIle  @thehill We could use a new era of greatness! America needs to return to its place in the world--leading!"
p1081
sg4
V7:01 PM - 29 Nov 2015
p1082
sa(dp1083
g2
V"@lee_richter:  TRUMP will make America SAFE again...He will make America LEGAL again...He will make America GREAT again! #Trump2016 USA"
p1084
sg4
V5:36 PM - 29 Nov 2015
p1085
sa(dp1086
g2
V"@Antonio92692: @CNNPolitics @realDonaldTrump TRUMP IS THE SMARTEST AND BEST MAN TO SAVE AMERICA. "  Thank you!
p1087
sg4
V5:29 PM - 29 Nov 2015
p1088
sa(dp1089
g2
V"@boogiefinger: @realDonaldTrump @meetthepress @chucktodd Chuck doesn't know that 100,000 x 2 = 200,000 "
p1090
sg4
V1:44 PM - 29 Nov 2015
p1091
sa(dp1092
g2
V"@thatx209xguy: @realDonaldTrump @DailyCaller Trump is our last hope to make America great again. #Trump2016" So true!
p1093
sg4
V1:40 AM - 29 Nov 2015
p1094
sa(dp1095
g2
V"@Allibiis: @realDonaldTrump @ArtPar17 @CNN story is bogus. Donald Trump has the most diverse group of voters/supporters in the GOP field."
p1096
sg4
V8:05 PM - 28 Nov 2015
p1097
sa(dp1098
g2
V"@Jameslauer6: @David360NC @azblonde2015 NOW'S THE TIME 4 CHRISTIANS TO GET OUT THE VOTE BIG TIME TO SAVE CHRISTIANITY ONCE & 4 ALL. TRUMP"
p1099
sg4
V3:06 PM - 28 Nov 2015
p1100
sa(dp1101
g2
VOrder signed copy of CRIPPLED AMERICA & have opportunity to submit question for my live streaming book signing 12/3
p1102
sg4
V2:41 PM - 30 Nov 2015
p1103
sa(dp1104
g2
VMeeting with African American Pastors at Trump Tower was amazing. Wonderful news conference followed. Now off to Georgia for big speech!
p1105
sg4
V1:17 PM - 30 Nov 2015
p1106
sa(dp1107
g2
VWe need a great leader- now! https://www.instagram.com/p/-uAgXOGhV1/ 
p1108
sg4
V10:26 AM - 30 Nov 2015
p1109
sa(dp1110
g2
VWe better be vigilant, careful, and strong.
p1111
sg4
V7:40 AM - 30 Nov 2015
p1112
sa(dp1113
g2
VThe Republican establishment, out of self preservation, is concerned w/ my high poll #'s. More concerned are Dems\u2014I beat Hillary heads up!
p1114
sg4
V7:23 AM - 30 Nov 2015
p1115
sa(dp1116
g2
VHow is Chris Christie running the state of NJ, which is deeply troubled, when he is spending all of his time in NH? New Jerseyans not happy!
p1117
sg4
V6:09 AM - 30 Nov 2015
p1118
sa(dp1119
g2
VWow, the MSM is really going after me. 12,000 in Sarasota, a love fest, hardly a mention. Only one negativity - they only want negatives!
p1120
sg4
V6:08 AM - 30 Nov 2015
p1121
sa(dp1122
g2
V"@charlottepturn: @Morning_Joe THERE WERE NO VIDEO CELL PHONES!IS AreUall looking4bonus?Near StJoes Hosp Paterson NJ Arab area outside celeb
p1123
sg4
V5:16 AM - 30 Nov 2015
p1124
sa(dp1125
g2
V"@wzpd8z: Mr. Trump, Chuck Todd is a moron, all kinds of youtube videos showing muslims celebrating 911. I would show it on your ads."
p1126
sg4
V5:14 AM - 30 Nov 2015
p1127
sa(dp1128
g2
V"@wompol: @realDonaldTrump @CNN we also saw numerous (since scrubbed) videos of celebrations on 9/11"
p1129
sg4
V5:13 AM - 30 Nov 2015
p1130
sa(dp1131
g2
VWhen will @CNN get some real political talent rather than political commentators like Errol Louis, who doesn't have a clue! Others bad also.
p1132
sg4
V4:44 AM - 30 Nov 2015
p1133
sa(dp1134
g2
V"@BeckyOmz: @JuvenIle  @thehill We could use a new era of greatness! America needs to return to its place in the world--leading!"
p1135
sg4
V7:01 PM - 29 Nov 2015
p1136
sa(dp1137
g2
V"@Barber2012Jeff: @realDonaldTrump John Kasich-it didn't work I'm still voting for #Trump" John has done so poorly in the debates he's done!
p1138
sg4
V6:57 PM - 29 Nov 2015
p1139
sa(dp1140
g2
V"@ThisWeekABC: Maria, why do you work with such dummies as Cokie Roberts, @BillKristol, @mattbai? You can do much better! @MariaTCardona.
p1141
sg4
V6:51 PM - 29 Nov 2015
p1142
sa(dp1143
g2
V"@lee_richter:  TRUMP will make America SAFE again...He will make America LEGAL again...He will make America GREAT again! #Trump2016 USA"
p1144
sg4
V5:36 PM - 29 Nov 2015
p1145
sa(dp1146
g2
V"@Dmsrcmc12Bob: @realDonaldTrump They should all get on the Trump train!"  So true!
p1147
sg4
V5:35 PM - 29 Nov 2015
p1148
sa(dp1149
g2
V"@Born2RunJosh: @realDonaldTrump @Antonio92692 @CNNPolitics Trump for president! #TRUMP2016 #MakeAmericaGreatAgain"
p1150
sg4
V5:34 PM - 29 Nov 2015
p1151
sa(dp1152
g2
V"@Rketeltas:  Every time Trump is gracious enough to do a MSM interview he gets ambushed with nonsensical questions, why is that."
p1153
sg4
V5:33 PM - 29 Nov 2015
p1154
sa(dp1155
g2
VI hope @TGowdySC does better for Rubio than he did at the #Benghazi hearings, which were a total disaster for Republicans & America!
p1156
sg4
V12:36 PM - 29 Dec 2015
p1157
sa(dp1158
g2
VLooking forward to being in Council Bluffs, Iowa, later today. Despite weather, rally is on -- will be fantastic! #MakeAmericaGreatAgain!
p1159
sg4
V10:50 AM - 29 Dec 2015
p1160
sa(dp1161
g2
VMy campaign for president is $35,000,000 under budget, I have spent very little (and am in 1st place).Now I will spend big in Iowa/N.H./S.C.
p1162
sg4
V6:33 AM - 29 Dec 2015
p1163
sa(dp1164
g2
VIowa was fantastic last night, amazing crowd and people. I'm now in Florida, getting ready to go to South Carolina. Big crowd, very exciting
p1165
sg4
V5:08 AM - 30 Dec 2015
p1166
sa(dp1167
g2
VStrange, but I see wacko Bernie Sanders allies coming over to me because I'm lowering taxes, while he will double & triple them, a disaster!
p1168
sg4
V5:34 AM - 28 Dec 2015
p1169
sa(dp1170
g2
VA lovely letter from the daughter of the late great John Wayne. Our country could use a John Wayne right now. https://www.facebook.com/DonaldTrump/posts/10156475870665725:0 \u2026
p1171
sg4
V1:57 PM - 30 Dec 2015
p1172
sa(dp1173
g2
VGreat poll- thank you Nevada!\u000a#MakeAmericaGreatAgain #Trump2016
p1174
sg4
V1:22 PM - 30 Dec 2015
p1175
sa(dp1176
g2
VI'm going to be live with @ericbolling and @kimguilfoyle to ring in the New Year 2016. Everybody should tune in to @foxnews tomorrow night!
p1177
sg4
V12:28 PM - 30 Dec 2015
p1178
sa(dp1179
g2
VThank you Hilton Head, South Carolina! #MakeAmericaGreatAgain #Trump2016
p1180
sg4
V12:04 PM - 30 Dec 2015
p1181
sa(dp1182
g2
V"@Hashtag1USA: @realDonaldTrump what do you think of Jeb cancelling his Iowa rally last night ? " I went, he didn't!
p1183
sg4
V5:12 AM - 30 Dec 2015
p1184
sa(dp1185
g2
VTHANK YOU Council Bluffs, Iowa! The silent majority, is silent no more!\u000a#Trump2016 #FITN https://www.facebook.com/DonaldTrump/posts/10156473232605725:0 \u2026
p1186
sg4
V8:02 PM - 29 Dec 2015
p1187
sa(dp1188
g2
VNew #ReutersPoll. Thank you America! \u000a#MakeAmericaGreatAgain #Trump2016
p1189
sg4
V2:53 PM - 29 Dec 2015
p1190
sa(dp1191
g2
VWe need a real President! https://www.instagram.com/p/_4w_6xGhfn/ 
p1192
sg4
V11:20 AM - 29 Dec 2015
p1193
sa(dp1194
g2
VSo, I have spent almost nothing on my run for president and am in 1st place. Jeb Bush has spent $59 million & done. Run country my way!
p1195
sg4
V6:39 AM - 29 Dec 2015
p1196
sa(dp1197
g2
V"Minorities line up behind.....Donald Trump" #Trump2016 #MakeAmericaGreatAgain http://mobile.wnd.com/2015/12/minorities-line-up-behind-donald-trump/#YYG0amMURFhrzi0B.03 \u2026
p1198
sg4
V4:38 AM - 29 Dec 2015
p1199
sa(dp1200
g2
VRemember that Bill Clinton was brought in to help Hillary against Obama in 2008. He was terrible, failed badly, and was called a racist!
p1201
sg4
V8:31 PM - 28 Dec 2015
p1202
sa(dp1203
g2
VThank you! #Trump2016 \u000ahttps://instagram.com/p/_2lRuOGhbt/ 
p1204
sg4
V2:51 PM - 28 Dec 2015
p1205
sa(dp1206
g2
VThank you to a #Trump2016 supporter for this video of my campaign- over the past 6 months. Video: https://www.facebook.com/DonaldTrump/posts/10156467989725725:0 \u2026
p1207
sg4
V2:45 PM - 28 Dec 2015
p1208
sa(dp1209
g2
VA lovely letter from the daughter of the late great John Wayne. Our country could use a John Wayne right now. https://www.facebook.com/DonaldTrump/posts/10156475870665725:0 \u2026
p1210
sg4
V1:57 PM - 30 Dec 2015
p1211
sa(dp1212
g2
VGreat poll- thank you Nevada!\u000a#MakeAmericaGreatAgain #Trump2016
p1213
sg4
V1:22 PM - 30 Dec 2015
p1214
sa(dp1215
g2
VI'm going to be live with @ericbolling and @kimguilfoyle to ring in the New Year 2016. Everybody should tune in to @foxnews tomorrow night!
p1216
sg4
V12:28 PM - 30 Dec 2015
p1217
sa(dp1218
g2
VThank you Hilton Head, South Carolina! #MakeAmericaGreatAgain #Trump2016
p1219
sg4
V12:04 PM - 30 Dec 2015
p1220
sa(dp1221
g2
VThank you Hilton Head, South Carolina! @SCTeamTrump #Trump2016 https://www.facebook.com/DonaldTrump/posts/10156475262795725:0 \u2026
p1222
sg4
V10:28 AM - 30 Dec 2015
p1223
sa(dp1224
g2
VI never thought I'd be saying this but I've really enjoyed  @RichLowry on television lately, and he was terrific hosting @seanhannity
p1225
sg4
V7:52 AM - 30 Dec 2015
p1226
sa(dp1227
g2
VJoe McQuaid (@deucecrew) is desperately trying to sell the @UnionLeader. It's a loser, and my comments haven't helped him much.
p1228
sg4
V7:22 AM - 30 Dec 2015
p1229
sa(dp1230
g2
VThe dying @UnionLeader newspaper in NH is in turmoil over my comments about them- like a bully that got knocked out!
p1231
sg4
V6:06 AM - 30 Dec 2015
p1232
sa(dp1233
g2
V"@TruthisAll1: @realDonaldTrump @CharlesHurt @seanhannity Good morning, Mr. Trump. You're so AWESOME. #Trump2016 "
p1234
sg4
V5:16 AM - 30 Dec 2015
p1235
sa(dp1236
g2
V"@hammetjohn: DonaldTrump - How do u do it Donald. No one could keep up with u at your pace. Shows how hard u will work for us as President"
p1237
sg4
V5:15 AM - 30 Dec 2015
p1238
sa(dp1239
g2
V"@videosigninc: @realDonaldTrump Keep the momentum going Mr. Trump. All the best to you for the New Year. Make America Great Again !" Thanks
p1240
sg4
V5:12 AM - 30 Dec 2015
p1241
sa(dp1242
g2
VIowa was fantastic last night, amazing crowd and people. I'm now in Florida, getting ready to go to South Carolina. Big crowd, very exciting
p1243
sg4
V5:08 AM - 30 Dec 2015
p1244
sa(dp1245
g2
V.@CharlesHurt   You were great on @seanhannity last night. Thanks for the nice words. MAKE AMERICA GREAT AGAIN!
p1246
sg4
V4:31 AM - 30 Dec 2015
p1247
sa(dp1248
g2
VTHANK YOU Council Bluffs, Iowa! The silent majority, is silent no more!\u000a#Trump2016 #FITN https://www.facebook.com/DonaldTrump/posts/10156473232605725:0 \u2026
p1249
sg4
V8:02 PM - 29 Dec 2015
p1250
sa(dp1251
g2
VJoe McQuaid (@deucecrew) of the dying Union Leader wanted ads, lunches, donations, speeches from me, and tweets---very unethical.
p1252
sg4
V4:37 PM - 29 Dec 2015
p1253
sa.